

Microchip Technology PIC LITE Macro Assembler V1.45 build -152302408 
                                                                                               Wed Apr 11 16:09:00 2018

Microchip Technology Omniscient Code Generator v1.45 (Free mode) build 201711160504
     1                           	processor	16F1518
     2                           	opt	pw 120
     3                           	opt	lm
     4                           	psect	stringtext1,global,class=STRCODE,delta=2
     5                           	psect	stringtext2,global,class=STRCODE,delta=2
     6                           	psect	stringtext3,global,class=STRCODE,delta=2
     7                           	psect	stringtext4,global,class=STRCODE,delta=2
     8                           	psect	stringtext5,global,class=STRCODE,delta=2
     9                           	psect	cinit,global,class=CODE,merge=1,delta=2
    10                           	psect	cstackCOMMON,global,class=COMMON,space=1,delta=1
    11                           	psect	cstackBANK0,global,class=BANK0,space=1,delta=1
    12                           	psect	maintext,global,class=CODE,merge=1,split=1,delta=2
    13                           	psect	text1,local,class=CODE,merge=1,delta=2
    14                           	psect	text2,local,class=CODE,merge=1,delta=2
    15                           	psect	text3,local,class=CODE,merge=1,delta=2
    16                           	psect	text4,local,class=CODE,merge=1,delta=2,group=1
    17                           	psect	text5,local,class=CODE,merge=1,delta=2
    18                           	psect	text6,local,class=CODE,merge=1,delta=2
    19                           	psect	text7,local,class=CODE,merge=1,delta=2
    20                           	psect	text8,local,class=CODE,merge=1,delta=2
    21                           	psect	text9,local,class=CODE,merge=1,delta=2
    22                           	psect	text10,local,class=CODE,merge=1,delta=2
    23                           	psect	text11,local,class=CODE,merge=1,delta=2
    24                           	psect	text12,local,class=CODE,merge=1,delta=2
    25                           	psect	text13,local,class=CODE,merge=1,delta=2
    26                           	psect	text14,local,class=CODE,merge=1,delta=2
    27                           	psect	text15,local,class=CODE,merge=1,delta=2
    28                           	psect	text16,local,class=CODE,merge=1,delta=2
    29                           	psect	text17,local,class=CODE,merge=1,delta=2
    30                           	psect	text18,local,class=CODE,merge=1,delta=2
    31                           	psect	text19,local,class=CODE,merge=1,delta=2
    32                           	dabs	1,0x7E,2
    33  0000                     
    34                           ; Version 1.45
    35                           ; Generated 16/11/2017 GMT
    36                           ; 
    37                           ; Copyright © 2017, Microchip Technology Inc. and its subsidiaries ("Microchip")
    38                           ; All rights reserved.
    39                           ; 
    40                           ; This software is developed by Microchip Technology Inc. and its subsidiaries ("Microch
      +                          ip").
    41                           ; 
    42                           ; Redistribution and use in source and binary forms, with or without modification, are
    43                           ; permitted provided that the following conditions are met:
    44                           ; 
    45                           ;     1. Redistributions of source code must retain the above copyright notice, this lis
      +                          t of
    46                           ;        conditions and the following disclaimer.
    47                           ; 
    48                           ;     2. Redistributions in binary form must reproduce the above copyright notice, this 
      +                          list
    49                           ;        of conditions and the following disclaimer in the documentation and/or other
    50                           ;        materials provided with the distribution.
    51                           ; 
    52                           ;     3. Microchip's name may not be used to endorse or promote products derived from th
      +                          is
    53                           ;        software without specific prior written permission.
    54                           ; 
    55                           ; THIS SOFTWARE IS PROVIDED BY MICROCHIP "AS IS" AND ANY EXPRESS OR IMPLIED WARRANTIES,
    56                           ; INCLUDING, BUT NOT LIMITED TO, THE IMPLIED WARRANTIES OF MERCHANTABILITY AND FITNESS F
      +                          OR
    57                           ; PURPOSE ARE DISCLAIMED.  IN NO EVENT SHALL MICROCHIP BE LIABLE FOR ANY DIRECT, INDIREC
      +                          T,
    58                           ; INCIDENTAL, SPECIAL, EXEMPLARY, OR CONSEQUENTIAL DAMAGES (INCLUDING BUT NOT LIMITED TO
    59                           ; PROCUREMENT OF SUBSTITUTE GOODS OR SERVICES; LOSS OF USE, DATA OR PROFITS; OR BUSINESS
    60                           ; INTERRUPTION) HOWSOEVER CAUSED AND ON ANY THEORY OF LIABILITY, WHETHER IN CONTRACT, ST
      +                          RICT
    61                           ; LIABILITY, OR TORT (INCLUDING NEGLIGENCE OR OTHERWISE) ARISING IN ANY WAY OUT OF THE U
      +                          SE OF
    62                           ; THIS SOFTWARE, EVEN IF ADVISED OF THE POSSIBILITY OF SUCH DAMAGE.
    63                           ; 
    64                           ; 
    65                           ; Code-generator required, PIC16F1518 Definitions
    66                           ; 
    67                           ; SFR Addresses
    68  0000                     	;# 
    69  0001                     	;# 
    70  0002                     	;# 
    71  0003                     	;# 
    72  0004                     	;# 
    73  0005                     	;# 
    74  0006                     	;# 
    75  0007                     	;# 
    76  0008                     	;# 
    77  0009                     	;# 
    78  000A                     	;# 
    79  000B                     	;# 
    80  000C                     	;# 
    81  000D                     	;# 
    82  000E                     	;# 
    83  0010                     	;# 
    84  0011                     	;# 
    85  0012                     	;# 
    86  0015                     	;# 
    87  0016                     	;# 
    88  0016                     	;# 
    89  0017                     	;# 
    90  0018                     	;# 
    91  0019                     	;# 
    92  001A                     	;# 
    93  001B                     	;# 
    94  001C                     	;# 
    95  008C                     	;# 
    96  008D                     	;# 
    97  008E                     	;# 
    98  0090                     	;# 
    99  0091                     	;# 
   100  0092                     	;# 
   101  0095                     	;# 
   102  0096                     	;# 
   103  0097                     	;# 
   104  0099                     	;# 
   105  009A                     	;# 
   106  009B                     	;# 
   107  009B                     	;# 
   108  009C                     	;# 
   109  009D                     	;# 
   110  009E                     	;# 
   111  010C                     	;# 
   112  010D                     	;# 
   113  010E                     	;# 
   114  0116                     	;# 
   115  0117                     	;# 
   116  011D                     	;# 
   117  018C                     	;# 
   118  018D                     	;# 
   119  018E                     	;# 
   120  0191                     	;# 
   121  0191                     	;# 
   122  0192                     	;# 
   123  0193                     	;# 
   124  0193                     	;# 
   125  0194                     	;# 
   126  0195                     	;# 
   127  0196                     	;# 
   128  0197                     	;# 
   129  0199                     	;# 
   130  019A                     	;# 
   131  019B                     	;# 
   132  019B                     	;# 
   133  019B                     	;# 
   134  019B                     	;# 
   135  019C                     	;# 
   136  019C                     	;# 
   137  019D                     	;# 
   138  019E                     	;# 
   139  019F                     	;# 
   140  020D                     	;# 
   141  0210                     	;# 
   142  0211                     	;# 
   143  0211                     	;# 
   144  0212                     	;# 
   145  0212                     	;# 
   146  0213                     	;# 
   147  0213                     	;# 
   148  0214                     	;# 
   149  0214                     	;# 
   150  0215                     	;# 
   151  0215                     	;# 
   152  0215                     	;# 
   153  0216                     	;# 
   154  0216                     	;# 
   155  0217                     	;# 
   156  0217                     	;# 
   157  0291                     	;# 
   158  0291                     	;# 
   159  0292                     	;# 
   160  0293                     	;# 
   161  0298                     	;# 
   162  0298                     	;# 
   163  0299                     	;# 
   164  029A                     	;# 
   165  0394                     	;# 
   166  0395                     	;# 
   167  0396                     	;# 
   168  0FE4                     	;# 
   169  0FE5                     	;# 
   170  0FE6                     	;# 
   171  0FE7                     	;# 
   172  0FE8                     	;# 
   173  0FE9                     	;# 
   174  0FEA                     	;# 
   175  0FEB                     	;# 
   176  0FED                     	;# 
   177  0FEE                     	;# 
   178  0FEF                     	;# 
   179  0000                     	;# 
   180  0001                     	;# 
   181  0002                     	;# 
   182  0003                     	;# 
   183  0004                     	;# 
   184  0005                     	;# 
   185  0006                     	;# 
   186  0007                     	;# 
   187  0008                     	;# 
   188  0009                     	;# 
   189  000A                     	;# 
   190  000B                     	;# 
   191  000C                     	;# 
   192  000D                     	;# 
   193  000E                     	;# 
   194  0010                     	;# 
   195  0011                     	;# 
   196  0012                     	;# 
   197  0015                     	;# 
   198  0016                     	;# 
   199  0016                     	;# 
   200  0017                     	;# 
   201  0018                     	;# 
   202  0019                     	;# 
   203  001A                     	;# 
   204  001B                     	;# 
   205  001C                     	;# 
   206  008C                     	;# 
   207  008D                     	;# 
   208  008E                     	;# 
   209  0090                     	;# 
   210  0091                     	;# 
   211  0092                     	;# 
   212  0095                     	;# 
   213  0096                     	;# 
   214  0097                     	;# 
   215  0099                     	;# 
   216  009A                     	;# 
   217  009B                     	;# 
   218  009B                     	;# 
   219  009C                     	;# 
   220  009D                     	;# 
   221  009E                     	;# 
   222  010C                     	;# 
   223  010D                     	;# 
   224  010E                     	;# 
   225  0116                     	;# 
   226  0117                     	;# 
   227  011D                     	;# 
   228  018C                     	;# 
   229  018D                     	;# 
   230  018E                     	;# 
   231  0191                     	;# 
   232  0191                     	;# 
   233  0192                     	;# 
   234  0193                     	;# 
   235  0193                     	;# 
   236  0194                     	;# 
   237  0195                     	;# 
   238  0196                     	;# 
   239  0197                     	;# 
   240  0199                     	;# 
   241  019A                     	;# 
   242  019B                     	;# 
   243  019B                     	;# 
   244  019B                     	;# 
   245  019B                     	;# 
   246  019C                     	;# 
   247  019C                     	;# 
   248  019D                     	;# 
   249  019E                     	;# 
   250  019F                     	;# 
   251  020D                     	;# 
   252  0210                     	;# 
   253  0211                     	;# 
   254  0211                     	;# 
   255  0212                     	;# 
   256  0212                     	;# 
   257  0213                     	;# 
   258  0213                     	;# 
   259  0214                     	;# 
   260  0214                     	;# 
   261  0215                     	;# 
   262  0215                     	;# 
   263  0215                     	;# 
   264  0216                     	;# 
   265  0216                     	;# 
   266  0217                     	;# 
   267  0217                     	;# 
   268  0291                     	;# 
   269  0291                     	;# 
   270  0292                     	;# 
   271  0293                     	;# 
   272  0298                     	;# 
   273  0298                     	;# 
   274  0299                     	;# 
   275  029A                     	;# 
   276  0394                     	;# 
   277  0395                     	;# 
   278  0396                     	;# 
   279  0FE4                     	;# 
   280  0FE5                     	;# 
   281  0FE6                     	;# 
   282  0FE7                     	;# 
   283  0FE8                     	;# 
   284  0FE9                     	;# 
   285  0FEA                     	;# 
   286  0FEB                     	;# 
   287  0FED                     	;# 
   288  0FEE                     	;# 
   289  0FEF                     	;# 
   290  0000                     	;# 
   291  0001                     	;# 
   292  0002                     	;# 
   293  0003                     	;# 
   294  0004                     	;# 
   295  0005                     	;# 
   296  0006                     	;# 
   297  0007                     	;# 
   298  0008                     	;# 
   299  0009                     	;# 
   300  000A                     	;# 
   301  000B                     	;# 
   302  000C                     	;# 
   303  000D                     	;# 
   304  000E                     	;# 
   305  0010                     	;# 
   306  0011                     	;# 
   307  0012                     	;# 
   308  0015                     	;# 
   309  0016                     	;# 
   310  0016                     	;# 
   311  0017                     	;# 
   312  0018                     	;# 
   313  0019                     	;# 
   314  001A                     	;# 
   315  001B                     	;# 
   316  001C                     	;# 
   317  008C                     	;# 
   318  008D                     	;# 
   319  008E                     	;# 
   320  0090                     	;# 
   321  0091                     	;# 
   322  0092                     	;# 
   323  0095                     	;# 
   324  0096                     	;# 
   325  0097                     	;# 
   326  0099                     	;# 
   327  009A                     	;# 
   328  009B                     	;# 
   329  009B                     	;# 
   330  009C                     	;# 
   331  009D                     	;# 
   332  009E                     	;# 
   333  010C                     	;# 
   334  010D                     	;# 
   335  010E                     	;# 
   336  0116                     	;# 
   337  0117                     	;# 
   338  011D                     	;# 
   339  018C                     	;# 
   340  018D                     	;# 
   341  018E                     	;# 
   342  0191                     	;# 
   343  0191                     	;# 
   344  0192                     	;# 
   345  0193                     	;# 
   346  0193                     	;# 
   347  0194                     	;# 
   348  0195                     	;# 
   349  0196                     	;# 
   350  0197                     	;# 
   351  0199                     	;# 
   352  019A                     	;# 
   353  019B                     	;# 
   354  019B                     	;# 
   355  019B                     	;# 
   356  019B                     	;# 
   357  019C                     	;# 
   358  019C                     	;# 
   359  019D                     	;# 
   360  019E                     	;# 
   361  019F                     	;# 
   362  020D                     	;# 
   363  0210                     	;# 
   364  0211                     	;# 
   365  0211                     	;# 
   366  0212                     	;# 
   367  0212                     	;# 
   368  0213                     	;# 
   369  0213                     	;# 
   370  0214                     	;# 
   371  0214                     	;# 
   372  0215                     	;# 
   373  0215                     	;# 
   374  0215                     	;# 
   375  0216                     	;# 
   376  0216                     	;# 
   377  0217                     	;# 
   378  0217                     	;# 
   379  0291                     	;# 
   380  0291                     	;# 
   381  0292                     	;# 
   382  0293                     	;# 
   383  0298                     	;# 
   384  0298                     	;# 
   385  0299                     	;# 
   386  029A                     	;# 
   387  0394                     	;# 
   388  0395                     	;# 
   389  0396                     	;# 
   390  0FE4                     	;# 
   391  0FE5                     	;# 
   392  0FE6                     	;# 
   393  0FE7                     	;# 
   394  0FE8                     	;# 
   395  0FE9                     	;# 
   396  0FEA                     	;# 
   397  0FEB                     	;# 
   398  0FED                     	;# 
   399  0FEE                     	;# 
   400  0FEF                     	;# 
   401  0000                     	;# 
   402  0001                     	;# 
   403  0002                     	;# 
   404  0003                     	;# 
   405  0004                     	;# 
   406  0005                     	;# 
   407  0006                     	;# 
   408  0007                     	;# 
   409  0008                     	;# 
   410  0009                     	;# 
   411  000A                     	;# 
   412  000B                     	;# 
   413  000C                     	;# 
   414  000D                     	;# 
   415  000E                     	;# 
   416  0010                     	;# 
   417  0011                     	;# 
   418  0012                     	;# 
   419  0015                     	;# 
   420  0016                     	;# 
   421  0016                     	;# 
   422  0017                     	;# 
   423  0018                     	;# 
   424  0019                     	;# 
   425  001A                     	;# 
   426  001B                     	;# 
   427  001C                     	;# 
   428  008C                     	;# 
   429  008D                     	;# 
   430  008E                     	;# 
   431  0090                     	;# 
   432  0091                     	;# 
   433  0092                     	;# 
   434  0095                     	;# 
   435  0096                     	;# 
   436  0097                     	;# 
   437  0099                     	;# 
   438  009A                     	;# 
   439  009B                     	;# 
   440  009B                     	;# 
   441  009C                     	;# 
   442  009D                     	;# 
   443  009E                     	;# 
   444  010C                     	;# 
   445  010D                     	;# 
   446  010E                     	;# 
   447  0116                     	;# 
   448  0117                     	;# 
   449  011D                     	;# 
   450  018C                     	;# 
   451  018D                     	;# 
   452  018E                     	;# 
   453  0191                     	;# 
   454  0191                     	;# 
   455  0192                     	;# 
   456  0193                     	;# 
   457  0193                     	;# 
   458  0194                     	;# 
   459  0195                     	;# 
   460  0196                     	;# 
   461  0197                     	;# 
   462  0199                     	;# 
   463  019A                     	;# 
   464  019B                     	;# 
   465  019B                     	;# 
   466  019B                     	;# 
   467  019B                     	;# 
   468  019C                     	;# 
   469  019C                     	;# 
   470  019D                     	;# 
   471  019E                     	;# 
   472  019F                     	;# 
   473  020D                     	;# 
   474  0210                     	;# 
   475  0211                     	;# 
   476  0211                     	;# 
   477  0212                     	;# 
   478  0212                     	;# 
   479  0213                     	;# 
   480  0213                     	;# 
   481  0214                     	;# 
   482  0214                     	;# 
   483  0215                     	;# 
   484  0215                     	;# 
   485  0215                     	;# 
   486  0216                     	;# 
   487  0216                     	;# 
   488  0217                     	;# 
   489  0217                     	;# 
   490  0291                     	;# 
   491  0291                     	;# 
   492  0292                     	;# 
   493  0293                     	;# 
   494  0298                     	;# 
   495  0298                     	;# 
   496  0299                     	;# 
   497  029A                     	;# 
   498  0394                     	;# 
   499  0395                     	;# 
   500  0396                     	;# 
   501  0FE4                     	;# 
   502  0FE5                     	;# 
   503  0FE6                     	;# 
   504  0FE7                     	;# 
   505  0FE8                     	;# 
   506  0FE9                     	;# 
   507  0FEA                     	;# 
   508  0FEB                     	;# 
   509  0FED                     	;# 
   510  0FEE                     	;# 
   511  0FEF                     	;# 
   512  0000                     	;# 
   513  0001                     	;# 
   514  0002                     	;# 
   515  0003                     	;# 
   516  0004                     	;# 
   517  0005                     	;# 
   518  0006                     	;# 
   519  0007                     	;# 
   520  0008                     	;# 
   521  0009                     	;# 
   522  000A                     	;# 
   523  000B                     	;# 
   524  000C                     	;# 
   525  000D                     	;# 
   526  000E                     	;# 
   527  0010                     	;# 
   528  0011                     	;# 
   529  0012                     	;# 
   530  0015                     	;# 
   531  0016                     	;# 
   532  0016                     	;# 
   533  0017                     	;# 
   534  0018                     	;# 
   535  0019                     	;# 
   536  001A                     	;# 
   537  001B                     	;# 
   538  001C                     	;# 
   539  008C                     	;# 
   540  008D                     	;# 
   541  008E                     	;# 
   542  0090                     	;# 
   543  0091                     	;# 
   544  0092                     	;# 
   545  0095                     	;# 
   546  0096                     	;# 
   547  0097                     	;# 
   548  0099                     	;# 
   549  009A                     	;# 
   550  009B                     	;# 
   551  009B                     	;# 
   552  009C                     	;# 
   553  009D                     	;# 
   554  009E                     	;# 
   555  010C                     	;# 
   556  010D                     	;# 
   557  010E                     	;# 
   558  0116                     	;# 
   559  0117                     	;# 
   560  011D                     	;# 
   561  018C                     	;# 
   562  018D                     	;# 
   563  018E                     	;# 
   564  0191                     	;# 
   565  0191                     	;# 
   566  0192                     	;# 
   567  0193                     	;# 
   568  0193                     	;# 
   569  0194                     	;# 
   570  0195                     	;# 
   571  0196                     	;# 
   572  0197                     	;# 
   573  0199                     	;# 
   574  019A                     	;# 
   575  019B                     	;# 
   576  019B                     	;# 
   577  019B                     	;# 
   578  019B                     	;# 
   579  019C                     	;# 
   580  019C                     	;# 
   581  019D                     	;# 
   582  019E                     	;# 
   583  019F                     	;# 
   584  020D                     	;# 
   585  0210                     	;# 
   586  0211                     	;# 
   587  0211                     	;# 
   588  0212                     	;# 
   589  0212                     	;# 
   590  0213                     	;# 
   591  0213                     	;# 
   592  0214                     	;# 
   593  0214                     	;# 
   594  0215                     	;# 
   595  0215                     	;# 
   596  0215                     	;# 
   597  0216                     	;# 
   598  0216                     	;# 
   599  0217                     	;# 
   600  0217                     	;# 
   601  0291                     	;# 
   602  0291                     	;# 
   603  0292                     	;# 
   604  0293                     	;# 
   605  0298                     	;# 
   606  0298                     	;# 
   607  0299                     	;# 
   608  029A                     	;# 
   609  0394                     	;# 
   610  0395                     	;# 
   611  0396                     	;# 
   612  0FE4                     	;# 
   613  0FE5                     	;# 
   614  0FE6                     	;# 
   615  0FE7                     	;# 
   616  0FE8                     	;# 
   617  0FE9                     	;# 
   618  0FEA                     	;# 
   619  0FEB                     	;# 
   620  0FED                     	;# 
   621  0FEE                     	;# 
   622  0FEF                     	;# 
   623  0000                     	;# 
   624  0001                     	;# 
   625  0002                     	;# 
   626  0003                     	;# 
   627  0004                     	;# 
   628  0005                     	;# 
   629  0006                     	;# 
   630  0007                     	;# 
   631  0008                     	;# 
   632  0009                     	;# 
   633  000A                     	;# 
   634  000B                     	;# 
   635  000C                     	;# 
   636  000D                     	;# 
   637  000E                     	;# 
   638  0010                     	;# 
   639  0011                     	;# 
   640  0012                     	;# 
   641  0015                     	;# 
   642  0016                     	;# 
   643  0016                     	;# 
   644  0017                     	;# 
   645  0018                     	;# 
   646  0019                     	;# 
   647  001A                     	;# 
   648  001B                     	;# 
   649  001C                     	;# 
   650  008C                     	;# 
   651  008D                     	;# 
   652  008E                     	;# 
   653  0090                     	;# 
   654  0091                     	;# 
   655  0092                     	;# 
   656  0095                     	;# 
   657  0096                     	;# 
   658  0097                     	;# 
   659  0099                     	;# 
   660  009A                     	;# 
   661  009B                     	;# 
   662  009B                     	;# 
   663  009C                     	;# 
   664  009D                     	;# 
   665  009E                     	;# 
   666  010C                     	;# 
   667  010D                     	;# 
   668  010E                     	;# 
   669  0116                     	;# 
   670  0117                     	;# 
   671  011D                     	;# 
   672  018C                     	;# 
   673  018D                     	;# 
   674  018E                     	;# 
   675  0191                     	;# 
   676  0191                     	;# 
   677  0192                     	;# 
   678  0193                     	;# 
   679  0193                     	;# 
   680  0194                     	;# 
   681  0195                     	;# 
   682  0196                     	;# 
   683  0197                     	;# 
   684  0199                     	;# 
   685  019A                     	;# 
   686  019B                     	;# 
   687  019B                     	;# 
   688  019B                     	;# 
   689  019B                     	;# 
   690  019C                     	;# 
   691  019C                     	;# 
   692  019D                     	;# 
   693  019E                     	;# 
   694  019F                     	;# 
   695  020D                     	;# 
   696  0210                     	;# 
   697  0211                     	;# 
   698  0211                     	;# 
   699  0212                     	;# 
   700  0212                     	;# 
   701  0213                     	;# 
   702  0213                     	;# 
   703  0214                     	;# 
   704  0214                     	;# 
   705  0215                     	;# 
   706  0215                     	;# 
   707  0215                     	;# 
   708  0216                     	;# 
   709  0216                     	;# 
   710  0217                     	;# 
   711  0217                     	;# 
   712  0291                     	;# 
   713  0291                     	;# 
   714  0292                     	;# 
   715  0293                     	;# 
   716  0298                     	;# 
   717  0298                     	;# 
   718  0299                     	;# 
   719  029A                     	;# 
   720  0394                     	;# 
   721  0395                     	;# 
   722  0396                     	;# 
   723  0FE4                     	;# 
   724  0FE5                     	;# 
   725  0FE6                     	;# 
   726  0FE7                     	;# 
   727  0FE8                     	;# 
   728  0FE9                     	;# 
   729  0FEA                     	;# 
   730  0FEB                     	;# 
   731  0FED                     	;# 
   732  0FEE                     	;# 
   733  0FEF                     	;# 
   734                           
   735                           	psect	stringtext1
   736  0800                     __pstringtext1:	
   737  0800                     _ov7670_default_regs:	
   738  0800  3412               	retlw	18
   739  0801  3400               	retlw	0
   740  0802  3480               	retlw	128
   741  0803  3400               	retlw	0
   742  0804  343A               	retlw	58
   743  0805  3400               	retlw	0
   744  0806  3404               	retlw	4
   745  0807  3400               	retlw	0
   746  0808  3412               	retlw	18
   747  0809  3400               	retlw	0
   748  080A  3400               	retlw	0
   749  080B  3400               	retlw	0
   750  080C  3417               	retlw	23
   751  080D  3400               	retlw	0
   752  080E  3413               	retlw	19
   753  080F  3400               	retlw	0
   754  0810  3418               	retlw	24
   755  0811  3400               	retlw	0
   756  0812  3401               	retlw	1
   757  0813  3400               	retlw	0
   758  0814  3432               	retlw	50
   759  0815  3400               	retlw	0
   760  0816  34B6               	retlw	182
   761  0817  3400               	retlw	0
   762  0818  3419               	retlw	25
   763  0819  3400               	retlw	0
   764  081A  3402               	retlw	2
   765  081B  3400               	retlw	0
   766  081C  341A               	retlw	26
   767  081D  3400               	retlw	0
   768  081E  347A               	retlw	122
   769  081F  3400               	retlw	0
   770  0820  3403               	retlw	3
   771  0821  3400               	retlw	0
   772  0822  340A               	retlw	10
   773  0823  3400               	retlw	0
   774  0824  340C               	retlw	12
   775  0825  3400               	retlw	0
   776  0826  3400               	retlw	0
   777  0827  3400               	retlw	0
   778  0828  343E               	retlw	62
   779  0829  3400               	retlw	0
   780  082A  3400               	retlw	0
   781  082B  3400               	retlw	0
   782  082C  3470               	retlw	112
   783  082D  3400               	retlw	0
   784  082E  343A               	retlw	58
   785  082F  3400               	retlw	0
   786  0830  3471               	retlw	113
   787  0831  3400               	retlw	0
   788  0832  3435               	retlw	53
   789  0833  3400               	retlw	0
   790  0834  3472               	retlw	114
   791  0835  3400               	retlw	0
   792  0836  3411               	retlw	17
   793  0837  3400               	retlw	0
   794  0838  3473               	retlw	115
   795  0839  3400               	retlw	0
   796  083A  34F0               	retlw	240
   797  083B  3400               	retlw	0
   798  083C  34A2               	retlw	162
   799  083D  3400               	retlw	0
   800  083E  3401               	retlw	1
   801  083F  3400               	retlw	0
   802  0840  3415               	retlw	21
   803  0841  3400               	retlw	0
   804  0842  3400               	retlw	0
   805  0843  3400               	retlw	0
   806  0844  347A               	retlw	122
   807  0845  3400               	retlw	0
   808  0846  3420               	retlw	32
   809  0847  3400               	retlw	0
   810  0848  347B               	retlw	123
   811  0849  3400               	retlw	0
   812  084A  3410               	retlw	16
   813  084B  3400               	retlw	0
   814  084C  347C               	retlw	124
   815  084D  3400               	retlw	0
   816  084E  341E               	retlw	30
   817  084F  3400               	retlw	0
   818  0850  347D               	retlw	125
   819  0851  3400               	retlw	0
   820  0852  3435               	retlw	53
   821  0853  3400               	retlw	0
   822  0854  347E               	retlw	126
   823  0855  3400               	retlw	0
   824  0856  345A               	retlw	90
   825  0857  3400               	retlw	0
   826  0858  347F               	retlw	127
   827  0859  3400               	retlw	0
   828  085A  3469               	retlw	105
   829  085B  3400               	retlw	0
   830  085C  3480               	retlw	128
   831  085D  3400               	retlw	0
   832  085E  3476               	retlw	118
   833  085F  3400               	retlw	0
   834  0860  3481               	retlw	129
   835  0861  3400               	retlw	0
   836  0862  3480               	retlw	128
   837  0863  3400               	retlw	0
   838  0864  3482               	retlw	130
   839  0865  3400               	retlw	0
   840  0866  3488               	retlw	136
   841  0867  3400               	retlw	0
   842  0868  3483               	retlw	131
   843  0869  3400               	retlw	0
   844  086A  348F               	retlw	143
   845  086B  3400               	retlw	0
   846  086C  3484               	retlw	132
   847  086D  3400               	retlw	0
   848  086E  3496               	retlw	150
   849  086F  3400               	retlw	0
   850  0870  3485               	retlw	133
   851  0871  3400               	retlw	0
   852  0872  34A3               	retlw	163
   853  0873  3400               	retlw	0
   854  0874  3486               	retlw	134
   855  0875  3400               	retlw	0
   856  0876  34AF               	retlw	175
   857  0877  3400               	retlw	0
   858  0878  3487               	retlw	135
   859  0879  3400               	retlw	0
   860  087A  34C4               	retlw	196
   861  087B  3400               	retlw	0
   862  087C  3488               	retlw	136
   863  087D  3400               	retlw	0
   864  087E  34D7               	retlw	215
   865  087F  3400               	retlw	0
   866  0880  3489               	retlw	137
   867  0881  3400               	retlw	0
   868  0882  34E8               	retlw	232
   869  0883  3400               	retlw	0
   870  0884  3413               	retlw	19
   871  0885  3400               	retlw	0
   872  0886  34C0               	retlw	192
   873  0887  3400               	retlw	0
   874  0888  3400               	retlw	0
   875  0889  3400               	retlw	0
   876  088A  3400               	retlw	0
   877  088B  3400               	retlw	0
   878  088C  3410               	retlw	16
   879  088D  3400               	retlw	0
   880  088E  3400               	retlw	0
   881  088F  3400               	retlw	0
   882  0890  340D               	retlw	13
   883  0891  3400               	retlw	0
   884  0892  3440               	retlw	64
   885  0893  3400               	retlw	0
   886  0894  3414               	retlw	20
   887  0895  3400               	retlw	0
   888  0896  3418               	retlw	24
   889  0897  3400               	retlw	0
   890  0898  34A5               	retlw	165
   891  0899  3400               	retlw	0
   892  089A  3405               	retlw	5
   893  089B  3400               	retlw	0
   894  089C  34AB               	retlw	171
   895  089D  3400               	retlw	0
   896  089E  3407               	retlw	7
   897  089F  3400               	retlw	0
   898  08A0  3424               	retlw	36
   899  08A1  3400               	retlw	0
   900  08A2  3495               	retlw	149
   901  08A3  3400               	retlw	0
   902  08A4  3425               	retlw	37
   903  08A5  3400               	retlw	0
   904  08A6  3433               	retlw	51
   905  08A7  3400               	retlw	0
   906  08A8  3426               	retlw	38
   907  08A9  3400               	retlw	0
   908  08AA  34E3               	retlw	227
   909  08AB  3400               	retlw	0
   910  08AC  349F               	retlw	159
   911  08AD  3400               	retlw	0
   912  08AE  3478               	retlw	120
   913  08AF  3400               	retlw	0
   914  08B0  34A0               	retlw	160
   915  08B1  3400               	retlw	0
   916  08B2  3468               	retlw	104
   917  08B3  3400               	retlw	0
   918  08B4  34A1               	retlw	161
   919  08B5  3400               	retlw	0
   920  08B6  3403               	retlw	3
   921  08B7  3400               	retlw	0
   922  08B8  34A6               	retlw	166
   923  08B9  3400               	retlw	0
   924  08BA  34D8               	retlw	216
   925  08BB  3400               	retlw	0
   926  08BC  34A7               	retlw	167
   927  08BD  3400               	retlw	0
   928  08BE  34D8               	retlw	216
   929  08BF  3400               	retlw	0
   930  08C0  34A8               	retlw	168
   931  08C1  3400               	retlw	0
   932  08C2  34F0               	retlw	240
   933  08C3  3400               	retlw	0
   934  08C4  34A9               	retlw	169
   935  08C5  3400               	retlw	0
   936  08C6  3490               	retlw	144
   937  08C7  3400               	retlw	0
   938  08C8  34AA               	retlw	170
   939  08C9  3400               	retlw	0
   940  08CA  3494               	retlw	148
   941  08CB  3400               	retlw	0
   942  08CC  3413               	retlw	19
   943  08CD  3400               	retlw	0
   944  08CE  34C5               	retlw	197
   945  08CF  3400               	retlw	0
   946  08D0  3430               	retlw	48
   947  08D1  3400               	retlw	0
   948  08D2  3400               	retlw	0
   949  08D3  3400               	retlw	0
   950  08D4  3431               	retlw	49
   951  08D5  3400               	retlw	0
   952  08D6  3400               	retlw	0
   953  08D7  3400               	retlw	0
   954  08D8  340E               	retlw	14
   955  08D9  3400               	retlw	0
   956  08DA  3461               	retlw	97
   957  08DB  3400               	retlw	0
   958  08DC  340F               	retlw	15
   959  08DD  3400               	retlw	0
   960  08DE  344B               	retlw	75
   961  08DF  3400               	retlw	0
   962  08E0  3416               	retlw	22
   963  08E1  3400               	retlw	0
   964  08E2  3402               	retlw	2
   965  08E3  3400               	retlw	0
   966  08E4  341E               	retlw	30
   967  08E5  3400               	retlw	0
   968  08E6  3407               	retlw	7
   969  08E7  3400               	retlw	0
   970  08E8  3421               	retlw	33
   971  08E9  3400               	retlw	0
   972  08EA  3402               	retlw	2
   973  08EB  3400               	retlw	0
   974  08EC  3422               	retlw	34
   975  08ED  3400               	retlw	0
   976  08EE  3491               	retlw	145
   977  08EF  3400               	retlw	0
   978  08F0  3429               	retlw	41
   979  08F1  3400               	retlw	0
   980  08F2  3407               	retlw	7
   981  08F3  3400               	retlw	0
   982  08F4  3433               	retlw	51
   983  08F5  3400               	retlw	0
   984  08F6  340B               	retlw	11
   985  08F7  3400               	retlw	0
   986  08F8  3435               	retlw	53
   987  08F9  3400               	retlw	0
   988  08FA  340B               	retlw	11
   989  08FB  3400               	retlw	0
   990  08FC  3437               	retlw	55
   991  08FD  3400               	retlw	0
   992  08FE  341D               	retlw	29
   993  08FF  3400               	retlw	0
   994  0900  3438               	retlw	56
   995  0901  3400               	retlw	0
   996  0902  3471               	retlw	113
   997  0903  3400               	retlw	0
   998  0904  3439               	retlw	57
   999  0905  3400               	retlw	0
  1000  0906  342A               	retlw	42
  1001  0907  3400               	retlw	0
  1002  0908  343C               	retlw	60
  1003  0909  3400               	retlw	0
  1004  090A  3478               	retlw	120
  1005  090B  3400               	retlw	0
  1006  090C  344D               	retlw	77
  1007  090D  3400               	retlw	0
  1008  090E  3440               	retlw	64
  1009  090F  3400               	retlw	0
  1010  0910  344E               	retlw	78
  1011  0911  3400               	retlw	0
  1012  0912  3420               	retlw	32
  1013  0913  3400               	retlw	0
  1014  0914  3469               	retlw	105
  1015  0915  3400               	retlw	0
  1016  0916  3400               	retlw	0
  1017  0917  3400               	retlw	0
  1018  0918  3474               	retlw	116
  1019  0919  3400               	retlw	0
  1020  091A  3410               	retlw	16
  1021  091B  3400               	retlw	0
  1022  091C  348D               	retlw	141
  1023  091D  3400               	retlw	0
  1024  091E  344F               	retlw	79
  1025  091F  3400               	retlw	0
  1026  0920  348E               	retlw	142
  1027  0921  3400               	retlw	0
  1028  0922  3400               	retlw	0
  1029  0923  3400               	retlw	0
  1030  0924  348F               	retlw	143
  1031  0925  3400               	retlw	0
  1032  0926  3400               	retlw	0
  1033  0927  3400               	retlw	0
  1034  0928  3490               	retlw	144
  1035  0929  3400               	retlw	0
  1036  092A  3400               	retlw	0
  1037  092B  3400               	retlw	0
  1038  092C  3491               	retlw	145
  1039  092D  3400               	retlw	0
  1040  092E  3400               	retlw	0
  1041  092F  3400               	retlw	0
  1042  0930  3496               	retlw	150
  1043  0931  3400               	retlw	0
  1044  0932  3400               	retlw	0
  1045  0933  3400               	retlw	0
  1046  0934  349A               	retlw	154
  1047  0935  3400               	retlw	0
  1048  0936  3400               	retlw	0
  1049  0937  3400               	retlw	0
  1050  0938  34B0               	retlw	176
  1051  0939  3400               	retlw	0
  1052  093A  3484               	retlw	132
  1053  093B  3400               	retlw	0
  1054  093C  34B1               	retlw	177
  1055  093D  3400               	retlw	0
  1056  093E  340C               	retlw	12
  1057  093F  3400               	retlw	0
  1058  0940  34B2               	retlw	178
  1059  0941  3400               	retlw	0
  1060  0942  340E               	retlw	14
  1061  0943  3400               	retlw	0
  1062  0944  34B3               	retlw	179
  1063  0945  3400               	retlw	0
  1064  0946  3482               	retlw	130
  1065  0947  3400               	retlw	0
  1066  0948  34B8               	retlw	184
  1067  0949  3400               	retlw	0
  1068  094A  340A               	retlw	10
  1069  094B  3400               	retlw	0
  1070  094C  3443               	retlw	67
  1071  094D  3400               	retlw	0
  1072  094E  340A               	retlw	10
  1073  094F  3400               	retlw	0
  1074  0950  3444               	retlw	68
  1075  0951  3400               	retlw	0
  1076  0952  34F0               	retlw	240
  1077  0953  3400               	retlw	0
  1078  0954  3445               	retlw	69
  1079  0955  3400               	retlw	0
  1080  0956  3434               	retlw	52
  1081  0957  3400               	retlw	0
  1082  0958  3446               	retlw	70
  1083  0959  3400               	retlw	0
  1084  095A  3458               	retlw	88
  1085  095B  3400               	retlw	0
  1086  095C  3447               	retlw	71
  1087  095D  3400               	retlw	0
  1088  095E  3428               	retlw	40
  1089  095F  3400               	retlw	0
  1090  0960  3448               	retlw	72
  1091  0961  3400               	retlw	0
  1092  0962  343A               	retlw	58
  1093  0963  3400               	retlw	0
  1094  0964  3459               	retlw	89
  1095  0965  3400               	retlw	0
  1096  0966  3488               	retlw	136
  1097  0967  3400               	retlw	0
  1098  0968  345A               	retlw	90
  1099  0969  3400               	retlw	0
  1100  096A  3488               	retlw	136
  1101  096B  3400               	retlw	0
  1102  096C  345B               	retlw	91
  1103  096D  3400               	retlw	0
  1104  096E  3444               	retlw	68
  1105  096F  3400               	retlw	0
  1106  0970  345C               	retlw	92
  1107  0971  3400               	retlw	0
  1108  0972  3467               	retlw	103
  1109  0973  3400               	retlw	0
  1110  0974  345D               	retlw	93
  1111  0975  3400               	retlw	0
  1112  0976  3449               	retlw	73
  1113  0977  3400               	retlw	0
  1114  0978  345E               	retlw	94
  1115  0979  3400               	retlw	0
  1116  097A  340E               	retlw	14
  1117  097B  3400               	retlw	0
  1118  097C  346C               	retlw	108
  1119  097D  3400               	retlw	0
  1120  097E  340A               	retlw	10
  1121  097F  3400               	retlw	0
  1122  0980  346D               	retlw	109
  1123  0981  3400               	retlw	0
  1124  0982  3455               	retlw	85
  1125  0983  3400               	retlw	0
  1126  0984  346E               	retlw	110
  1127  0985  3400               	retlw	0
  1128  0986  3411               	retlw	17
  1129  0987  3400               	retlw	0
  1130  0988  346F               	retlw	111
  1131  0989  3400               	retlw	0
  1132  098A  349E               	retlw	158
  1133  098B  3400               	retlw	0
  1134  098C  346A               	retlw	106
  1135  098D  3400               	retlw	0
  1136  098E  3440               	retlw	64
  1137  098F  3400               	retlw	0
  1138  0990  3401               	retlw	1
  1139  0991  3400               	retlw	0
  1140  0992  3440               	retlw	64
  1141  0993  3400               	retlw	0
  1142  0994  3402               	retlw	2
  1143  0995  3400               	retlw	0
  1144  0996  3460               	retlw	96
  1145  0997  3400               	retlw	0
  1146  0998  3413               	retlw	19
  1147  0999  3400               	retlw	0
  1148  099A  34C7               	retlw	199
  1149  099B  3400               	retlw	0
  1150  099C  344F               	retlw	79
  1151  099D  3400               	retlw	0
  1152  099E  3480               	retlw	128
  1153  099F  3400               	retlw	0
  1154  09A0  3450               	retlw	80
  1155  09A1  3400               	retlw	0
  1156  09A2  3480               	retlw	128
  1157  09A3  3400               	retlw	0
  1158  09A4  3451               	retlw	81
  1159  09A5  3400               	retlw	0
  1160  09A6  3400               	retlw	0
  1161  09A7  3400               	retlw	0
  1162  09A8  3452               	retlw	82
  1163  09A9  3400               	retlw	0
  1164  09AA  3422               	retlw	34
  1165  09AB  3400               	retlw	0
  1166  09AC  3453               	retlw	83
  1167  09AD  3400               	retlw	0
  1168  09AE  345E               	retlw	94
  1169  09AF  3400               	retlw	0
  1170  09B0  3454               	retlw	84
  1171  09B1  3400               	retlw	0
  1172  09B2  3480               	retlw	128
  1173  09B3  3400               	retlw	0
  1174  09B4  3458               	retlw	88
  1175  09B5  3400               	retlw	0
  1176  09B6  349E               	retlw	158
  1177  09B7  3400               	retlw	0
  1178  09B8  3441               	retlw	65
  1179  09B9  3400               	retlw	0
  1180  09BA  3408               	retlw	8
  1181  09BB  3400               	retlw	0
  1182  09BC  343F               	retlw	63
  1183  09BD  3400               	retlw	0
  1184  09BE  3400               	retlw	0
  1185  09BF  3400               	retlw	0
  1186  09C0  3475               	retlw	117
  1187  09C1  3400               	retlw	0
  1188  09C2  3405               	retlw	5
  1189  09C3  3400               	retlw	0
  1190  09C4  3476               	retlw	118
  1191  09C5  3400               	retlw	0
  1192  09C6  34E1               	retlw	225
  1193  09C7  3400               	retlw	0
  1194  09C8  344C               	retlw	76
  1195  09C9  3400               	retlw	0
  1196  09CA  3400               	retlw	0
  1197  09CB  3400               	retlw	0
  1198  09CC  3477               	retlw	119
  1199  09CD  3400               	retlw	0
  1200  09CE  3401               	retlw	1
  1201  09CF  3400               	retlw	0
  1202  09D0  343D               	retlw	61
  1203  09D1  3400               	retlw	0
  1204  09D2  3448               	retlw	72
  1205  09D3  3400               	retlw	0
  1206  09D4  344B               	retlw	75
  1207  09D5  3400               	retlw	0
  1208  09D6  3409               	retlw	9
  1209  09D7  3400               	retlw	0
  1210  09D8  34C9               	retlw	201
  1211  09D9  3400               	retlw	0
  1212  09DA  3460               	retlw	96
  1213  09DB  3400               	retlw	0
  1214  09DC  3456               	retlw	86
  1215  09DD  3400               	retlw	0
  1216  09DE  3440               	retlw	64
  1217  09DF  3400               	retlw	0
  1218  09E0  3434               	retlw	52
  1219  09E1  3400               	retlw	0
  1220  09E2  3411               	retlw	17
  1221  09E3  3400               	retlw	0
  1222  09E4  343B               	retlw	59
  1223  09E5  3400               	retlw	0
  1224  09E6  3412               	retlw	18
  1225  09E7  3400               	retlw	0
  1226  09E8  34A4               	retlw	164
  1227  09E9  3400               	retlw	0
  1228  09EA  3482               	retlw	130
  1229  09EB  3400               	retlw	0
  1230  09EC  3496               	retlw	150
  1231  09ED  3400               	retlw	0
  1232  09EE  3400               	retlw	0
  1233  09EF  3400               	retlw	0
  1234  09F0  3497               	retlw	151
  1235  09F1  3400               	retlw	0
  1236  09F2  3430               	retlw	48
  1237  09F3  3400               	retlw	0
  1238  09F4  3498               	retlw	152
  1239  09F5  3400               	retlw	0
  1240  09F6  3420               	retlw	32
  1241  09F7  3400               	retlw	0
  1242  09F8  3499               	retlw	153
  1243  09F9  3400               	retlw	0
  1244  09FA  3430               	retlw	48
  1245  09FB  3400               	retlw	0
  1246  09FC  349A               	retlw	154
  1247  09FD  3400               	retlw	0
  1248  09FE  3484               	retlw	132
  1249  09FF  3400               	retlw	0
  1250  0A00  349B               	retlw	155
  1251  0A01  3400               	retlw	0
  1252  0A02  3429               	retlw	41
  1253  0A03  3400               	retlw	0
  1254  0A04  349C               	retlw	156
  1255  0A05  3400               	retlw	0
  1256  0A06  3403               	retlw	3
  1257  0A07  3400               	retlw	0
  1258  0A08  349D               	retlw	157
  1259  0A09  3400               	retlw	0
  1260  0A0A  344C               	retlw	76
  1261  0A0B  3400               	retlw	0
  1262  0A0C  349E               	retlw	158
  1263  0A0D  3400               	retlw	0
  1264  0A0E  343F               	retlw	63
  1265  0A0F  3400               	retlw	0
  1266  0A10  3478               	retlw	120
  1267  0A11  3400               	retlw	0
  1268  0A12  3404               	retlw	4
  1269  0A13  3400               	retlw	0
  1270  0A14  3479               	retlw	121
  1271  0A15  3400               	retlw	0
  1272  0A16  3401               	retlw	1
  1273  0A17  3400               	retlw	0
  1274  0A18  34C8               	retlw	200
  1275  0A19  3400               	retlw	0
  1276  0A1A  34F0               	retlw	240
  1277  0A1B  3400               	retlw	0
  1278  0A1C  3479               	retlw	121
  1279  0A1D  3400               	retlw	0
  1280  0A1E  340F               	retlw	15
  1281  0A1F  3400               	retlw	0
  1282  0A20  34C8               	retlw	200
  1283  0A21  3400               	retlw	0
  1284  0A22  3400               	retlw	0
  1285  0A23  3400               	retlw	0
  1286  0A24  3479               	retlw	121
  1287  0A25  3400               	retlw	0
  1288  0A26  3410               	retlw	16
  1289  0A27  3400               	retlw	0
  1290  0A28  34C8               	retlw	200
  1291  0A29  3400               	retlw	0
  1292  0A2A  347E               	retlw	126
  1293  0A2B  3400               	retlw	0
  1294  0A2C  3479               	retlw	121
  1295  0A2D  3400               	retlw	0
  1296  0A2E  340A               	retlw	10
  1297  0A2F  3400               	retlw	0
  1298  0A30  34C8               	retlw	200
  1299  0A31  3400               	retlw	0
  1300  0A32  3480               	retlw	128
  1301  0A33  3400               	retlw	0
  1302  0A34  3479               	retlw	121
  1303  0A35  3400               	retlw	0
  1304  0A36  340B               	retlw	11
  1305  0A37  3400               	retlw	0
  1306  0A38  34C8               	retlw	200
  1307  0A39  3400               	retlw	0
  1308  0A3A  3401               	retlw	1
  1309  0A3B  3400               	retlw	0
  1310  0A3C  3479               	retlw	121
  1311  0A3D  3400               	retlw	0
  1312  0A3E  340C               	retlw	12
  1313  0A3F  3400               	retlw	0
  1314  0A40  34C8               	retlw	200
  1315  0A41  3400               	retlw	0
  1316  0A42  340F               	retlw	15
  1317  0A43  3400               	retlw	0
  1318  0A44  3479               	retlw	121
  1319  0A45  3400               	retlw	0
  1320  0A46  340D               	retlw	13
  1321  0A47  3400               	retlw	0
  1322  0A48  34C8               	retlw	200
  1323  0A49  3400               	retlw	0
  1324  0A4A  3420               	retlw	32
  1325  0A4B  3400               	retlw	0
  1326  0A4C  3479               	retlw	121
  1327  0A4D  3400               	retlw	0
  1328  0A4E  3409               	retlw	9
  1329  0A4F  3400               	retlw	0
  1330  0A50  34C8               	retlw	200
  1331  0A51  3400               	retlw	0
  1332  0A52  3480               	retlw	128
  1333  0A53  3400               	retlw	0
  1334  0A54  3479               	retlw	121
  1335  0A55  3400               	retlw	0
  1336  0A56  3402               	retlw	2
  1337  0A57  3400               	retlw	0
  1338  0A58  34C8               	retlw	200
  1339  0A59  3400               	retlw	0
  1340  0A5A  34C0               	retlw	192
  1341  0A5B  3400               	retlw	0
  1342  0A5C  3479               	retlw	121
  1343  0A5D  3400               	retlw	0
  1344  0A5E  3403               	retlw	3
  1345  0A5F  3400               	retlw	0
  1346  0A60  34C8               	retlw	200
  1347  0A61  3400               	retlw	0
  1348  0A62  3440               	retlw	64
  1349  0A63  3400               	retlw	0
  1350  0A64  3479               	retlw	121
  1351  0A65  3400               	retlw	0
  1352  0A66  3405               	retlw	5
  1353  0A67  3400               	retlw	0
  1354  0A68  34C8               	retlw	200
  1355  0A69  3400               	retlw	0
  1356  0A6A  3430               	retlw	48
  1357  0A6B  3400               	retlw	0
  1358  0A6C  3479               	retlw	121
  1359  0A6D  3400               	retlw	0
  1360  0A6E  3426               	retlw	38
  1361  0A6F  3400               	retlw	0
  1362  0A70  34FF               	retlw	255
  1363  0A71  3400               	retlw	0
  1364  0A72  34FF               	retlw	255
  1365  0A73  3400               	retlw	0
  1366  0A74                     __end_of_ov7670_default_regs:	
  1367                           
  1368                           	psect	stringtext2
  1369  0A74                     __pstringtext2:	
  1370  0A74                     _yuv422_ov7670:	
  1371  0A74  3412               	retlw	18
  1372  0A75  3400               	retlw	0
  1373  0A76  3400               	retlw	0
  1374  0A77  3400               	retlw	0
  1375  0A78  348C               	retlw	140
  1376  0A79  3400               	retlw	0
  1377  0A7A  3400               	retlw	0
  1378  0A7B  3400               	retlw	0
  1379  0A7C  3404               	retlw	4
  1380  0A7D  3400               	retlw	0
  1381  0A7E  3400               	retlw	0
  1382  0A7F  3400               	retlw	0
  1383  0A80  3440               	retlw	64
  1384  0A81  3400               	retlw	0
  1385  0A82  34C0               	retlw	192
  1386  0A83  3400               	retlw	0
  1387  0A84  3414               	retlw	20
  1388  0A85  3400               	retlw	0
  1389  0A86  346A               	retlw	106
  1390  0A87  3400               	retlw	0
  1391  0A88  344F               	retlw	79
  1392  0A89  3400               	retlw	0
  1393  0A8A  3480               	retlw	128
  1394  0A8B  3400               	retlw	0
  1395  0A8C  3450               	retlw	80
  1396  0A8D  3400               	retlw	0
  1397  0A8E  3480               	retlw	128
  1398  0A8F  3400               	retlw	0
  1399  0A90  3451               	retlw	81
  1400  0A91  3400               	retlw	0
  1401  0A92  3400               	retlw	0
  1402  0A93  3400               	retlw	0
  1403  0A94  3452               	retlw	82
  1404  0A95  3400               	retlw	0
  1405  0A96  3422               	retlw	34
  1406  0A97  3400               	retlw	0
  1407  0A98  3453               	retlw	83
  1408  0A99  3400               	retlw	0
  1409  0A9A  345E               	retlw	94
  1410  0A9B  3400               	retlw	0
  1411  0A9C  3454               	retlw	84
  1412  0A9D  3400               	retlw	0
  1413  0A9E  3480               	retlw	128
  1414  0A9F  3400               	retlw	0
  1415  0AA0  343D               	retlw	61
  1416  0AA1  3400               	retlw	0
  1417  0AA2  3440               	retlw	64
  1418  0AA3  3400               	retlw	0
  1419  0AA4  34FF               	retlw	255
  1420  0AA5  3400               	retlw	0
  1421  0AA6  34FF               	retlw	255
  1422  0AA7  3400               	retlw	0
  1423  0AA8                     __end_of_yuv422_ov7670:	
  1424                           
  1425                           	psect	stringtext3
  1426  0AA8                     __pstringtext3:	
  1427  0AA8                     _qvga_ov7670:	
  1428  0AA8  343E               	retlw	62
  1429  0AA9  3400               	retlw	0
  1430  0AAA  3419               	retlw	25
  1431  0AAB  3400               	retlw	0
  1432  0AAC  3472               	retlw	114
  1433  0AAD  3400               	retlw	0
  1434  0AAE  3411               	retlw	17
  1435  0AAF  3400               	retlw	0
  1436  0AB0  3473               	retlw	115
  1437  0AB1  3400               	retlw	0
  1438  0AB2  34F1               	retlw	241
  1439  0AB3  3400               	retlw	0
  1440  0AB4  3417               	retlw	23
  1441  0AB5  3400               	retlw	0
  1442  0AB6  3416               	retlw	22
  1443  0AB7  3400               	retlw	0
  1444  0AB8  3418               	retlw	24
  1445  0AB9  3400               	retlw	0
  1446  0ABA  3404               	retlw	4
  1447  0ABB  3400               	retlw	0
  1448  0ABC  3432               	retlw	50
  1449  0ABD  3400               	retlw	0
  1450  0ABE  34A4               	retlw	164
  1451  0ABF  3400               	retlw	0
  1452  0AC0  3419               	retlw	25
  1453  0AC1  3400               	retlw	0
  1454  0AC2  3402               	retlw	2
  1455  0AC3  3400               	retlw	0
  1456  0AC4  341A               	retlw	26
  1457  0AC5  3400               	retlw	0
  1458  0AC6  347A               	retlw	122
  1459  0AC7  3400               	retlw	0
  1460  0AC8  3403               	retlw	3
  1461  0AC9  3400               	retlw	0
  1462  0ACA  340A               	retlw	10
  1463  0ACB  3400               	retlw	0
  1464  0ACC  34FF               	retlw	255
  1465  0ACD  3400               	retlw	0
  1466  0ACE  34FF               	retlw	255
  1467  0ACF  3400               	retlw	0
  1468  0AD0                     __end_of_qvga_ov7670:	
  1469  000E                     _PORTCbits	set	14
  1470  000C                     _PORTAbits	set	12
  1471  008D                     _RCIF	set	141
  1472  008C                     _TXIF	set	140
  1473  009B                     _ADRESL	set	155
  1474  009C                     _ADRESH	set	156
  1475  009E                     _ADCON1	set	158
  1476  009D                     _ADCON0	set	157
  1477  008E                     _TRISC	set	142
  1478  008D                     _TRISB	set	141
  1479  0099                     _OSCCONbits	set	153
  1480  04E9                     _GO_nDONE	set	1257
  1481  0461                     _TRISA1	set	1121
  1482  0477                     _TRISC7	set	1143
  1483  0476                     _TRISC6	set	1142
  1484  0474                     _TRISC4	set	1140
  1485  0473                     _TRISC3	set	1139
  1486  0460                     _TRISA0	set	1120
  1487  0466                     _TRISA6	set	1126
  1488  010D                     _LATB	set	269
  1489  018C                     _ANSELAbits	set	396
  1490  0199                     _RCREG	set	409
  1491  019A                     _TXREG	set	410
  1492  019B                     _SPBRG	set	411
  1493  018E                     _ANSELC	set	398
  1494  018C                     _ANSELA	set	396
  1495  0CE9                     _OERR	set	3305
  1496  0CEE                     _RX9	set	3310
  1497  0CF6                     _TX9	set	3318
  1498  0CEC                     _CREN	set	3308
  1499  0CF5                     _TXEN	set	3317
  1500  0CEF                     _SPEN	set	3311
  1501  0CF4                     _SYNC	set	3316
  1502  0CF2                     _BRGH	set	3314
  1503  0211                     _SSPBUF	set	529
  1504  0214                     _SSPSTAT	set	532
  1505  0212                     _SSPADD	set	530
  1506  0216                     _SSPCON2	set	534
  1507  0215                     _SSPCON1	set	533
  1508  10B3                     _RCEN	set	4275
  1509  10B2                     _PEN	set	4274
  1510  10B1                     _RSEN	set	4273
  1511  10B0                     _SEN	set	4272
  1512  0AD0                     STR_1:	
  1513  0AD0  3452               	retlw	82	;'R'
  1514  0AD1  3445               	retlw	69	;'E'
  1515  0AD2  3447               	retlw	71	;'G'
  1516  0AD3  345F               	retlw	95	;'_'
  1517  0AD4  3443               	retlw	67	;'C'
  1518  0AD5  344F               	retlw	79	;'O'
  1519  0AD6  344D               	retlw	77	;'M'
  1520  0AD7  3437               	retlw	55	;'7'
  1521  0AD8  3420               	retlw	32	;' '
  1522  0AD9  343D               	retlw	61	;'='
  1523  0ADA  3420               	retlw	32	;' '
  1524  0ADB  3400               	retlw	0
  1525                           
  1526                           	psect	stringtext4
  1527  0ADC                     __pstringtext4:	
  1528  0ADC                     STR_2:	
  1529  0ADC  3449               	retlw	73	;'I'
  1530  0ADD  3452               	retlw	82	;'R'
  1531  0ADE  3420               	retlw	32	;' '
  1532  0ADF  343D               	retlw	61	;'='
  1533  0AE0  3400               	retlw	0
  1534                           
  1535                           	psect	stringtext5
  1536  0000                     __pstringtext5:	
  1537                           
  1538                           ; #config settings
  1539  0000                     
  1540                           	psect	cinit
  1541  07FD                     start_initialization:	
  1542  07FD                     __initialization:	
  1543  07FD                     end_of_initialization:	
  1544                           ;End of C runtime variable initialization code
  1545                           
  1546  07FD                     __end_of__initialization:	
  1547  07FD  0020               	movlb	0
  1548  07FE  3186  2E5F         	ljmp	_main	;jump to C main() function
  1549                           
  1550                           	psect	cstackCOMMON
  1551  0070                     __pcstackCOMMON:	
  1552  0070                     ?_MPU6050_Init:	
  1553  0070                     ?_ADC_Init:	
  1554                           ; 1 bytes @ 0x0
  1555                           
  1556  0070                     ??_ADC_Init:	
  1557                           ; 1 bytes @ 0x0
  1558                           
  1559  0070                     ?_I2C_Master_Init:	
  1560                           ; 1 bytes @ 0x0
  1561                           
  1562  0070                     ??_I2C_Master_Init:	
  1563                           ; 1 bytes @ 0x0
  1564                           
  1565  0070                     ?_Initialize_UART:	
  1566                           ; 1 bytes @ 0x0
  1567                           
  1568  0070                     ??_Initialize_UART:	
  1569                           ; 1 bytes @ 0x0
  1570                           
  1571  0070                     ?_camInit:	
  1572                           ; 1 bytes @ 0x0
  1573                           
  1574  0070                     ?_Init_OV7670:	
  1575                           ; 1 bytes @ 0x0
  1576                           
  1577  0070                     ?_Init_QVGA:	
  1578                           ; 1 bytes @ 0x0
  1579                           
  1580  0070                     ?_UART_send_char:	
  1581                           ; 1 bytes @ 0x0
  1582                           
  1583  0070                     ??_UART_send_char:	
  1584                           ; 1 bytes @ 0x0
  1585                           
  1586  0070                     ?_I2C_Master_Restart:	
  1587                           ; 1 bytes @ 0x0
  1588                           
  1589  0070                     ?_I2C_Master_Write:	
  1590                           ; 1 bytes @ 0x0
  1591                           
  1592  0070                     ?_I2C_Master_Stop:	
  1593                           ; 1 bytes @ 0x0
  1594                           
  1595  0070                     ?_I2C_Master_Start:	
  1596                           ; 1 bytes @ 0x0
  1597                           
  1598  0070                     ?_I2C_Master_Wait:	
  1599                           ; 1 bytes @ 0x0
  1600                           
  1601  0070                     ?_ADC_Read:	
  1602                           ; 1 bytes @ 0x0
  1603                           
  1604  0070                     ?_main:	
  1605                           ; 2 bytes @ 0x0
  1606                           
  1607  0070                     ?___awdiv:	
  1608                           ; 2 bytes @ 0x0
  1609                           
  1610  0070                     UART_send_char@bt:	
  1611                           ; 2 bytes @ 0x0
  1612                           
  1613  0070                     ___awdiv@divisor:	
  1614                           ; 1 bytes @ 0x0
  1615                           
  1616                           
  1617                           ; 2 bytes @ 0x0
  1618  0070                     	ds	1
  1619  0071                     ?_UART_send_string:	
  1620  0071                     ??_I2C_Master_Wait:	
  1621                           ; 1 bytes @ 0x1
  1622                           
  1623  0071                     UART_send_string@st_pt:	
  1624                           ; 1 bytes @ 0x1
  1625                           
  1626                           
  1627                           ; 2 bytes @ 0x1
  1628  0071                     	ds	1
  1629  0072                     ??_ADC_Read:	
  1630  0072                     ___awdiv@dividend:	
  1631                           ; 1 bytes @ 0x2
  1632                           
  1633                           
  1634                           ; 2 bytes @ 0x2
  1635  0072                     	ds	1
  1636  0073                     ??_UART_send_string:	
  1637  0073                     ??_I2C_Master_Restart:	
  1638                           ; 1 bytes @ 0x3
  1639                           
  1640  0073                     ??_I2C_Master_Write:	
  1641                           ; 1 bytes @ 0x3
  1642                           
  1643  0073                     ??_I2C_Master_Stop:	
  1644                           ; 1 bytes @ 0x3
  1645                           
  1646  0073                     ??_I2C_Master_Start:	
  1647                           ; 1 bytes @ 0x3
  1648                           
  1649  0073                     ?_I2C_Master_Read:	
  1650                           ; 1 bytes @ 0x3
  1651                           
  1652  0073                     I2C_Master_Write@d:	
  1653                           ; 2 bytes @ 0x3
  1654                           
  1655                           
  1656                           ; 1 bytes @ 0x3
  1657  0073                     	ds	1
  1658  0074                     ??_MPU6050_Init:	
  1659  0074                     ?_regWrite:	
  1660                           ; 1 bytes @ 0x4
  1661                           
  1662  0074                     ??___awdiv:	
  1663                           ; 1 bytes @ 0x4
  1664                           
  1665  0074                     regWrite@data:	
  1666                           ; 1 bytes @ 0x4
  1667                           
  1668                           
  1669                           ; 1 bytes @ 0x4
  1670  0074                     	ds	1
  1671  0075                     ??_regWrite:	
  1672  0075                     ??_I2C_Master_Read:	
  1673                           ; 1 bytes @ 0x5
  1674                           
  1675  0075                     regWrite@reg:	
  1676                           ; 1 bytes @ 0x5
  1677                           
  1678  0075                     ___awdiv@counter:	
  1679                           ; 1 bytes @ 0x5
  1680                           
  1681                           
  1682                           ; 1 bytes @ 0x5
  1683  0075                     	ds	1
  1684  0076                     ??_camInit:	
  1685  0076                     ??_Init_OV7670:	
  1686                           ; 1 bytes @ 0x6
  1687                           
  1688  0076                     ??_Init_QVGA:	
  1689                           ; 1 bytes @ 0x6
  1690                           
  1691  0076                     ___awdiv@sign:	
  1692                           ; 1 bytes @ 0x6
  1693                           
  1694                           
  1695                           ; 1 bytes @ 0x6
  1696  0076                     	ds	1
  1697  0077                     I2C_Master_Read@temp:	
  1698  0077                     ___awdiv@quotient:	
  1699                           ; 1 bytes @ 0x7
  1700                           
  1701                           
  1702                           ; 2 bytes @ 0x7
  1703  0077                     	ds	2
  1704  0079                     ?_MPU6050_Read:	
  1705                           
  1706                           ; 2 bytes @ 0x9
  1707  0079                     	ds	2
  1708  007B                     ??_MPU6050_Read:	
  1709                           
  1710                           ; 1 bytes @ 0xB
  1711  007B                     	ds	3
  1712                           
  1713                           	psect	cstackBANK0
  1714  0020                     __pcstackBANK0:	
  1715  0020                     MPU6050_Read@Sensor:	
  1716                           
  1717                           ; 14 bytes @ 0x0
  1718  0020                     	ds	14
  1719  002E                     ??_main:	
  1720                           
  1721                           ; 1 bytes @ 0xE
  1722  002E                     	ds	2
  1723  0030                     main@t:	
  1724                           
  1725                           ; 1 bytes @ 0x10
  1726  0030                     	ds	1
  1727                           
  1728                           	psect	maintext
  1729  065F                     __pmaintext:	
  1730 ;;
  1731 ;;Main: autosize = 0, tempsize = 2, incstack = 0, save=0
  1732 ;;
  1733 ;; *************** function _main *****************
  1734 ;; Defined at:
  1735 ;;		line 41 in file "main.c"
  1736 ;; Parameters:    Size  Location     Type
  1737 ;;		None
  1738 ;; Auto vars:     Size  Location     Type
  1739 ;;  t               1   16[BANK0 ] unsigned char 
  1740 ;; Return value:  Size  Location     Type
  1741 ;;                  2   54[None  ] int 
  1742 ;; Registers used:
  1743 ;;		wreg, fsr0l, fsr0h, status,2, status,0, pclath, cstack
  1744 ;; Tracked objects:
  1745 ;;		On entry : B1F/0
  1746 ;;		On exit  : 0/0
  1747 ;;		Unchanged: 0/0
  1748 ;; Data sizes:     COMMON   BANK0   BANK1   BANK2   BANK3   BANK4   BANK5   BANK6   BANK7   BANK8   BANK9  BANK10  BANK1
      +1  BANK12
  1749 ;;      Params:         0       0       0       0       0       0       0       0       0       0       0       0       
      +0       0
  1750 ;;      Locals:         0       1       0       0       0       0       0       0       0       0       0       0       
      +0       0
  1751 ;;      Temps:          0       2       0       0       0       0       0       0       0       0       0       0       
      +0       0
  1752 ;;      Totals:         0       3       0       0       0       0       0       0       0       0       0       0       
      +0       0
  1753 ;;Total ram usage:        3 bytes
  1754 ;; Hardware stack levels required when called:    5
  1755 ;; This function calls:
  1756 ;;		_ADC_Init
  1757 ;;		_ADC_Read
  1758 ;;		_I2C_Master_Init
  1759 ;;		_Init_OV7670
  1760 ;;		_Init_QVGA
  1761 ;;		_Initialize_UART
  1762 ;;		_MPU6050_Init
  1763 ;;		_MPU6050_Read
  1764 ;;		_UART_send_char
  1765 ;;		_UART_send_string
  1766 ;;		_camInit
  1767 ;; This function is called by:
  1768 ;;		Startup code after reset
  1769 ;; This function uses a non-reentrant model
  1770 ;;
  1771                           
  1772                           
  1773                           ;psect for function _main
  1774  065F                     _main:	
  1775                           
  1776                           ;main.c: 42: ANSELA = 0;
  1777                           
  1778                           ;incstack = 0
  1779                           ; Regs used in _main: [wreg-fsr0h+status,2+status,0+pclath+cstack]
  1780  065F  0023               	movlb	3	; select bank3
  1781  0660  018C               	clrf	12	;volatile
  1782                           
  1783                           ;main.c: 43: ANSELC= 0;
  1784  0661  018E               	clrf	14	;volatile
  1785                           
  1786                           ;main.c: 44: OSCCONbits.IRCF = 0xf;
  1787  0662  3078               	movlw	120
  1788  0663  0021               	movlb	1	; select bank1
  1789  0664  0499               	iorwf	25,f	;volatile
  1790                           
  1791                           ;main.c: 45: OSCCONbits.SCS = 0x3;
  1792  0665  3003               	movlw	3
  1793  0666  0499               	iorwf	25,f	;volatile
  1794                           
  1795                           ;main.c: 47: TRISA6 = 0;
  1796  0667  130C               	bcf	12,6	;volatile
  1797                           
  1798                           ;main.c: 48: TRISB = 0xf;
  1799  0668  300F               	movlw	15
  1800  0669  008D               	movwf	13	;volatile
  1801                           
  1802                           ;main.c: 49: TRISC |= 0x3;
  1803  066A  3003               	movlw	3
  1804  066B  0020               	movlb	0	; select bank0
  1805  066C  00AE               	movwf	??_main
  1806  066D  082E               	movf	??_main,w
  1807  066E  0021               	movlb	1	; select bank1
  1808  066F  048E               	iorwf	14,f	;volatile
  1809                           
  1810                           ;main.c: 50: TRISA0 = 1;
  1811  0670  140C               	bsf	12,0	;volatile
  1812                           
  1813                           ;main.c: 51: TRISC3 = 1;
  1814  0671  158E               	bsf	14,3	;volatile
  1815                           
  1816                           ;main.c: 52: TRISC4 = 1;
  1817  0672  160E               	bsf	14,4	;volatile
  1818                           
  1819                           ;main.c: 54: MPU6050_Init();
  1820  0673  3185  2592  3186   	fcall	_MPU6050_Init
  1821                           
  1822                           ;main.c: 55: ADC_Init();
  1823  0676  3184  24DC  3186   	fcall	_ADC_Init
  1824                           
  1825                           ;main.c: 56: I2C_Master_Init();
  1826  0679  3184  24E5  3186   	fcall	_I2C_Master_Init
  1827                           
  1828                           ;main.c: 57: Initialize_UART();
  1829  067C  3184  24F0  3186   	fcall	_Initialize_UART
  1830                           
  1831                           ;main.c: 58: camInit();
  1832  067F  3185  256C  3186   	fcall	_camInit
  1833                           
  1834                           ;main.c: 59: Init_OV7670();
  1835  0682  3186  26BD  3186   	fcall	_Init_OV7670
  1836                           
  1837                           ;main.c: 60: Init_QVGA();
  1838  0685  3185  25BE  3186   	fcall	_Init_QVGA
  1839  0688                     l1192:	
  1840                           ;main.c: 64: while(1){
  1841                           
  1842                           
  1843                           ;main.c: 65: if(PORTAbits.RA0 != 0){
  1844  0688  0020               	movlb	0	; select bank0
  1845  0689  1C0C               	btfss	12,0	;volatile
  1846  068A  2E9D               	goto	l1202
  1847                           
  1848                           ;main.c: 66: char t = MPU6050_Read();
  1849  068B  3187  2743  3186   	fcall	_MPU6050_Read
  1850  068E  0879               	movf	?_MPU6050_Read,w
  1851  068F  0020               	movlb	0	; select bank0
  1852  0690  00AE               	movwf	??_main
  1853  0691  082E               	movf	??_main,w
  1854  0692  00B0               	movwf	main@t
  1855                           
  1856                           ;main.c: 68: UART_send_string("REG_COM7 = ");
  1857  0693  30D0               	movlw	low (STR_1| (0+32768))
  1858  0694  00F1               	movwf	UART_send_string@st_pt
  1859  0695  308A               	movlw	high (STR_1| (0+32768))
  1860  0696  00F2               	movwf	UART_send_string@st_pt+1
  1861  0697  3185  2524  3186   	fcall	_UART_send_string
  1862                           
  1863                           ;main.c: 69: UART_send_char(t);
  1864  069A  0020               	movlb	0	; select bank0
  1865  069B  0830               	movf	main@t,w
  1866  069C  2EA8               	goto	L1
  1867  069D                     l1202:	
  1868                           ;main.c: 71: }else{
  1869                           
  1870                           ;main.c: 70: UART_send_char('\n');
  1871                           
  1872                           
  1873                           ;main.c: 72: UART_send_string("IR =");
  1874  069D  30DC               	movlw	low (STR_2| (0+32768))
  1875  069E  00F1               	movwf	UART_send_string@st_pt
  1876  069F  308A               	movlw	high (STR_2| (0+32768))
  1877  06A0  00F2               	movwf	UART_send_string@st_pt+1
  1878  06A1  3185  2524  3186   	fcall	_UART_send_string
  1879                           
  1880                           ;main.c: 73: UART_send_char(ADC_Read());
  1881  06A4  3184  24FE  3186   	fcall	_ADC_Read
  1882  06A7  0870               	movf	?_ADC_Read,w
  1883  06A8                     L1:	
  1884  06A8  3184  24D4  3186   	fcall	_UART_send_char
  1885                           
  1886                           ;main.c: 74: UART_send_char('\n');
  1887  06AB  300A               	movlw	10
  1888  06AC  3184  24D4  3186   	fcall	_UART_send_char
  1889                           
  1890                           ;main.c: 75: }
  1891                           ;main.c: 77: _delay((unsigned long)((1000)*(16000000L/4000.0)));
  1892  06AF  3015               	movlw	21
  1893  06B0  0020               	movlb	0	; select bank0
  1894  06B1  00AF               	movwf	??_main+1
  1895  06B2  304B               	movlw	75
  1896  06B3  00AE               	movwf	??_main
  1897  06B4  30BE               	movlw	190
  1898  06B5                     u517:	
  1899  06B5  0B89               	decfsz	9,f
  1900  06B6  2EB5               	goto	u517
  1901  06B7  0BAE               	decfsz	??_main,f
  1902  06B8  2EB5               	goto	u517
  1903  06B9  0BAF               	decfsz	??_main+1,f
  1904  06BA  2EB5               	goto	u517
  1905  06BB  0000               	nop
  1906  06BC  2E88               	goto	l1192
  1907  06BD                     __end_of_main:	
  1908                           ;main.c: 78: }
  1909                           ;main.c: 79: return 0;
  1910                           ;	Return value of _main is never used
  1911                           
  1912                           
  1913                           	psect	text1
  1914  056C                     __ptext1:	
  1915 ;; *************** function _camInit *****************
  1916 ;; Defined at:
  1917 ;;		line 15 in file "OV7670.c"
  1918 ;; Parameters:    Size  Location     Type
  1919 ;;		None
  1920 ;; Auto vars:     Size  Location     Type
  1921 ;;		None
  1922 ;; Return value:  Size  Location     Type
  1923 ;;                  1    wreg      unsigned char 
  1924 ;; Registers used:
  1925 ;;		wreg, status,2, status,0, pclath, cstack
  1926 ;; Tracked objects:
  1927 ;;		On entry : 0/0
  1928 ;;		On exit  : 0/0
  1929 ;;		Unchanged: 0/0
  1930 ;; Data sizes:     COMMON   BANK0   BANK1   BANK2   BANK3   BANK4   BANK5   BANK6   BANK7   BANK8   BANK9  BANK10  BANK1
      +1  BANK12
  1931 ;;      Params:         0       0       0       0       0       0       0       0       0       0       0       0       
      +0       0
  1932 ;;      Locals:         0       0       0       0       0       0       0       0       0       0       0       0       
      +0       0
  1933 ;;      Temps:          2       0       0       0       0       0       0       0       0       0       0       0       
      +0       0
  1934 ;;      Totals:         2       0       0       0       0       0       0       0       0       0       0       0       
      +0       0
  1935 ;;Total ram usage:        2 bytes
  1936 ;; Hardware stack levels used:    1
  1937 ;; Hardware stack levels required when called:    4
  1938 ;; This function calls:
  1939 ;;		_regWrite
  1940 ;; This function is called by:
  1941 ;;		_main
  1942 ;; This function uses a non-reentrant model
  1943 ;;
  1944                           
  1945                           
  1946                           ;psect for function _camInit
  1947  056C                     _camInit:	
  1948                           
  1949                           ;OV7670.c: 16: _delay((unsigned long)((100)*(16000000L/4000.0)));
  1950                           
  1951                           ;incstack = 0
  1952                           ; Regs used in _camInit: [wreg+status,2+status,0+pclath+cstack]
  1953  056C  3003               	movlw	3
  1954  056D  00F7               	movwf	??_camInit+1
  1955  056E  3008               	movlw	8
  1956  056F  00F6               	movwf	??_camInit
  1957  0570  3077               	movlw	119
  1958  0571                     u527:	
  1959  0571  0B89               	decfsz	9,f
  1960  0572  2D71               	goto	u527
  1961  0573  0BF6               	decfsz	??_camInit,f
  1962  0574  2D71               	goto	u527
  1963  0575  0BF7               	decfsz	??_camInit+1,f
  1964  0576  2D71               	goto	u527
  1965  0577  0000               	nop
  1966                           
  1967                           ;OV7670.c: 17: regWrite(0x12, 0x80);
  1968  0578  3080               	movlw	128
  1969  0579  00F6               	movwf	??_camInit
  1970  057A  0876               	movf	??_camInit,w
  1971  057B  00F4               	movwf	regWrite@data
  1972  057C  3012               	movlw	18
  1973  057D  3185  2511  3185   	fcall	_regWrite
  1974                           
  1975                           ;OV7670.c: 18: _delay((unsigned long)((100)*(16000000L/4000.0)));
  1976  0580  3003               	movlw	3
  1977  0581  00F7               	movwf	??_camInit+1
  1978  0582  3008               	movlw	8
  1979  0583  00F6               	movwf	??_camInit
  1980  0584  3077               	movlw	119
  1981  0585                     u537:	
  1982  0585  0B89               	decfsz	9,f
  1983  0586  2D85               	goto	u537
  1984  0587  0BF6               	decfsz	??_camInit,f
  1985  0588  2D85               	goto	u537
  1986  0589  0BF7               	decfsz	??_camInit+1,f
  1987  058A  2D85               	goto	u537
  1988  058B  0000               	nop
  1989                           
  1990                           ;OV7670.c: 19: regWrite(0x09,0x1);
  1991  058C  01F4               	clrf	regWrite@data
  1992  058D  0AF4               	incf	regWrite@data,f
  1993  058E  3009               	movlw	9
  1994  058F  3185  2511         	fcall	_regWrite
  1995  0591  0008               	return
  1996  0592                     __end_of_camInit:	
  1997                           ;OV7670.c: 20: return 1;
  1998                           ;	Return value of _camInit is never used
  1999                           
  2000                           
  2001                           	psect	text2
  2002  0524                     __ptext2:	
  2003 ;; *************** function _UART_send_string *****************
  2004 ;; Defined at:
  2005 ;;		line 66 in file "uart.c"
  2006 ;; Parameters:    Size  Location     Type
  2007 ;;  st_pt           2    1[COMMON] PTR unsigned char 
  2008 ;;		 -> STR_2(5), STR_1(12), 
  2009 ;; Auto vars:     Size  Location     Type
  2010 ;;		None
  2011 ;; Return value:  Size  Location     Type
  2012 ;;                  1    wreg      void 
  2013 ;; Registers used:
  2014 ;;		wreg, fsr0l, fsr0h, status,2, status,0, pclath, cstack
  2015 ;; Tracked objects:
  2016 ;;		On entry : 0/0
  2017 ;;		On exit  : 0/0
  2018 ;;		Unchanged: 0/0
  2019 ;; Data sizes:     COMMON   BANK0   BANK1   BANK2   BANK3   BANK4   BANK5   BANK6   BANK7   BANK8   BANK9  BANK10  BANK1
      +1  BANK12
  2020 ;;      Params:         2       0       0       0       0       0       0       0       0       0       0       0       
      +0       0
  2021 ;;      Locals:         0       0       0       0       0       0       0       0       0       0       0       0       
      +0       0
  2022 ;;      Temps:          1       0       0       0       0       0       0       0       0       0       0       0       
      +0       0
  2023 ;;      Totals:         3       0       0       0       0       0       0       0       0       0       0       0       
      +0       0
  2024 ;;Total ram usage:        3 bytes
  2025 ;; Hardware stack levels used:    1
  2026 ;; Hardware stack levels required when called:    1
  2027 ;; This function calls:
  2028 ;;		_UART_send_char
  2029 ;; This function is called by:
  2030 ;;		_main
  2031 ;; This function uses a non-reentrant model
  2032 ;;
  2033                           
  2034                           
  2035                           ;psect for function _UART_send_string
  2036  0524                     _UART_send_string:	
  2037  0524                     l1148:	
  2038                           ;uart.c: 68: while(*st_pt)
  2039                           
  2040                           ;incstack = 0
  2041                           ; Regs used in _UART_send_string: [wreg-fsr0h+status,2+status,0+pclath+cstack]
  2042                           
  2043  0524  0871               	movf	UART_send_string@st_pt,w
  2044  0525  0084               	movwf	4
  2045  0526  0872               	movf	UART_send_string@st_pt+1,w
  2046  0527  0085               	movwf	5
  2047  0528  0012               	moviw fsr0++
  2048  0529  1903               	btfsc	3,2
  2049  052A  0008               	return
  2050                           
  2051                           ;uart.c: 69: UART_send_char(*st_pt++);
  2052  052B  0871               	movf	UART_send_string@st_pt,w
  2053  052C  0084               	movwf	4
  2054  052D  0872               	movf	UART_send_string@st_pt+1,w
  2055  052E  0085               	movwf	5
  2056  052F  0800               	movf	0,w	;code access
  2057  0530  3184  24D4  3185   	fcall	_UART_send_char
  2058  0533  3001               	movlw	1
  2059  0534  07F1               	addwf	UART_send_string@st_pt,f
  2060  0535  3000               	movlw	0
  2061  0536  3DF2               	addwfc	UART_send_string@st_pt+1,f
  2062  0537  2D24               	goto	l1148
  2063  0538                     __end_of_UART_send_string:	
  2064                           
  2065                           	psect	text3
  2066  0743                     __ptext3:	
  2067 ;; *************** function _MPU6050_Read *****************
  2068 ;; Defined at:
  2069 ;;		line 20 in file "MPU6050.c"
  2070 ;; Parameters:    Size  Location     Type
  2071 ;;		None
  2072 ;; Auto vars:     Size  Location     Type
  2073 ;;  Sensor         14    0[BANK0 ] struct .
  2074 ;; Return value:  Size  Location     Type
  2075 ;;                  2    9[COMMON] int 
  2076 ;; Registers used:
  2077 ;;		wreg, status,2, status,0, pclath, cstack
  2078 ;; Tracked objects:
  2079 ;;		On entry : 0/0
  2080 ;;		On exit  : 0/0
  2081 ;;		Unchanged: 0/0
  2082 ;; Data sizes:     COMMON   BANK0   BANK1   BANK2   BANK3   BANK4   BANK5   BANK6   BANK7   BANK8   BANK9  BANK10  BANK1
      +1  BANK12
  2083 ;;      Params:         2       0       0       0       0       0       0       0       0       0       0       0       
      +0       0
  2084 ;;      Locals:         0      14       0       0       0       0       0       0       0       0       0       0       
      +0       0
  2085 ;;      Temps:          3       0       0       0       0       0       0       0       0       0       0       0       
      +0       0
  2086 ;;      Totals:         5      14       0       0       0       0       0       0       0       0       0       0       
      +0       0
  2087 ;;Total ram usage:       19 bytes
  2088 ;; Hardware stack levels used:    1
  2089 ;; Hardware stack levels required when called:    3
  2090 ;; This function calls:
  2091 ;;		_I2C_Master_Read
  2092 ;;		_I2C_Master_Start
  2093 ;;		_I2C_Master_Stop
  2094 ;;		_I2C_Master_Write
  2095 ;;		___awdiv
  2096 ;; This function is called by:
  2097 ;;		_main
  2098 ;; This function uses a non-reentrant model
  2099 ;;
  2100                           
  2101                           
  2102                           ;psect for function _MPU6050_Read
  2103  0743                     _MPU6050_Read:	
  2104                           
  2105                           ;MPU6050.c: 22: MPU6050 Sensor;
  2106                           ;MPU6050.c: 23: I2C_Master_Start();
  2107                           
  2108                           ;incstack = 0
  2109                           ; Regs used in _MPU6050_Read: [wreg+status,2+status,0+pclath+cstack]
  2110  0743  3184  24C8  3187   	fcall	_I2C_Master_Start
  2111                           
  2112                           ;MPU6050.c: 24: I2C_Master_Write( 0xD0 );
  2113  0746  30D0               	movlw	208
  2114  0747  3184  24CD  3187   	fcall	_I2C_Master_Write
  2115                           
  2116                           ;MPU6050.c: 25: I2C_Master_Write( 0x3B );
  2117  074A  303B               	movlw	59
  2118  074B  3184  24CD  3187   	fcall	_I2C_Master_Write
  2119                           
  2120                           ;MPU6050.c: 26: I2C_Master_Start();
  2121  074E  3184  24C8  3187   	fcall	_I2C_Master_Start
  2122                           
  2123                           ;MPU6050.c: 27: I2C_Master_Write( 0xD0 | 1 );
  2124  0751  30D1               	movlw	209
  2125  0752  3184  24CD  3187   	fcall	_I2C_Master_Write
  2126                           
  2127                           ;MPU6050.c: 28: Sensor.Accel.X = ( I2C_Master_Read() << 8 ) | I2C_Master_Read();
  2128  0755  3185  2538  3187   	fcall	_I2C_Master_Read
  2129  0758  0873               	movf	?_I2C_Master_Read,w
  2130  0759  00FB               	movwf	??_MPU6050_Read
  2131  075A  0874               	movf	?_I2C_Master_Read+1,w
  2132  075B  00FC               	movwf	??_MPU6050_Read+1
  2133  075C  087B               	movf	??_MPU6050_Read,w
  2134  075D  00FC               	movwf	??_MPU6050_Read+1
  2135  075E  01FB               	clrf	??_MPU6050_Read
  2136  075F  3185  2538  3187   	fcall	_I2C_Master_Read
  2137  0762  0873               	movf	?_I2C_Master_Read,w
  2138  0763  047B               	iorwf	??_MPU6050_Read,w
  2139  0764  0020               	movlb	0	; select bank0
  2140  0765  00A0               	movwf	MPU6050_Read@Sensor
  2141  0766  0874               	movf	?_I2C_Master_Read+1,w
  2142  0767  047C               	iorwf	??_MPU6050_Read+1,w
  2143  0768  00A1               	movwf	MPU6050_Read@Sensor+1
  2144                           
  2145                           ;MPU6050.c: 29: Sensor.Accel.Y = ( I2C_Master_Read() << 8 ) | I2C_Master_Read();
  2146  0769  3185  2538  3187   	fcall	_I2C_Master_Read
  2147  076C  0873               	movf	?_I2C_Master_Read,w
  2148  076D  00FB               	movwf	??_MPU6050_Read
  2149  076E  0874               	movf	?_I2C_Master_Read+1,w
  2150  076F  00FC               	movwf	??_MPU6050_Read+1
  2151  0770  087B               	movf	??_MPU6050_Read,w
  2152  0771  00FC               	movwf	??_MPU6050_Read+1
  2153  0772  01FB               	clrf	??_MPU6050_Read
  2154  0773  3185  2538  3187   	fcall	_I2C_Master_Read
  2155  0776  0873               	movf	?_I2C_Master_Read,w
  2156  0777  047B               	iorwf	??_MPU6050_Read,w
  2157  0778  0020               	movlb	0	; select bank0
  2158  0779  00A2               	movwf	MPU6050_Read@Sensor+2
  2159  077A  0874               	movf	?_I2C_Master_Read+1,w
  2160  077B  047C               	iorwf	??_MPU6050_Read+1,w
  2161  077C  00A3               	movwf	MPU6050_Read@Sensor+3
  2162                           
  2163                           ;MPU6050.c: 30: Sensor.Accel.Z = ( I2C_Master_Read() << 8 ) | I2C_Master_Read();
  2164  077D  3185  2538  3187   	fcall	_I2C_Master_Read
  2165  0780  0873               	movf	?_I2C_Master_Read,w
  2166  0781  00FB               	movwf	??_MPU6050_Read
  2167  0782  0874               	movf	?_I2C_Master_Read+1,w
  2168  0783  00FC               	movwf	??_MPU6050_Read+1
  2169  0784  087B               	movf	??_MPU6050_Read,w
  2170  0785  00FC               	movwf	??_MPU6050_Read+1
  2171  0786  01FB               	clrf	??_MPU6050_Read
  2172  0787  3185  2538  3187   	fcall	_I2C_Master_Read
  2173  078A  0873               	movf	?_I2C_Master_Read,w
  2174  078B  047B               	iorwf	??_MPU6050_Read,w
  2175  078C  0020               	movlb	0	; select bank0
  2176  078D  00A4               	movwf	MPU6050_Read@Sensor+4
  2177  078E  0874               	movf	?_I2C_Master_Read+1,w
  2178  078F  047C               	iorwf	??_MPU6050_Read+1,w
  2179  0790  00A5               	movwf	MPU6050_Read@Sensor+5
  2180                           
  2181                           ;MPU6050.c: 31: Sensor.Temperature = ( I2C_Master_Read() << 8 ) | I2C_Master_Read();
  2182  0791  3185  2538  3187   	fcall	_I2C_Master_Read
  2183  0794  0873               	movf	?_I2C_Master_Read,w
  2184  0795  00FB               	movwf	??_MPU6050_Read
  2185  0796  0874               	movf	?_I2C_Master_Read+1,w
  2186  0797  00FC               	movwf	??_MPU6050_Read+1
  2187  0798  087B               	movf	??_MPU6050_Read,w
  2188  0799  00FC               	movwf	??_MPU6050_Read+1
  2189  079A  01FB               	clrf	??_MPU6050_Read
  2190  079B  3185  2538  3187   	fcall	_I2C_Master_Read
  2191  079E  0873               	movf	?_I2C_Master_Read,w
  2192  079F  047B               	iorwf	??_MPU6050_Read,w
  2193  07A0  0020               	movlb	0	; select bank0
  2194  07A1  00A6               	movwf	MPU6050_Read@Sensor+6
  2195  07A2  0874               	movf	?_I2C_Master_Read+1,w
  2196  07A3  047C               	iorwf	??_MPU6050_Read+1,w
  2197  07A4  00A7               	movwf	MPU6050_Read@Sensor+7
  2198                           
  2199                           ;MPU6050.c: 32: Sensor.Gyro.X = ( I2C_Master_Read() << 8 ) | I2C_Master_Read();
  2200  07A5  3185  2538  3187   	fcall	_I2C_Master_Read
  2201  07A8  0873               	movf	?_I2C_Master_Read,w
  2202  07A9  00FB               	movwf	??_MPU6050_Read
  2203  07AA  0874               	movf	?_I2C_Master_Read+1,w
  2204  07AB  00FC               	movwf	??_MPU6050_Read+1
  2205  07AC  087B               	movf	??_MPU6050_Read,w
  2206  07AD  00FC               	movwf	??_MPU6050_Read+1
  2207  07AE  01FB               	clrf	??_MPU6050_Read
  2208  07AF  3185  2538  3187   	fcall	_I2C_Master_Read
  2209  07B2  0873               	movf	?_I2C_Master_Read,w
  2210  07B3  047B               	iorwf	??_MPU6050_Read,w
  2211  07B4  0020               	movlb	0	; select bank0
  2212  07B5  00A8               	movwf	MPU6050_Read@Sensor+8
  2213  07B6  0874               	movf	?_I2C_Master_Read+1,w
  2214  07B7  047C               	iorwf	??_MPU6050_Read+1,w
  2215  07B8  00A9               	movwf	MPU6050_Read@Sensor+9
  2216                           
  2217                           ;MPU6050.c: 33: Sensor.Gyro.Y = ( I2C_Master_Read() << 8 ) |I2C_Master_Read();
  2218  07B9  3185  2538  3187   	fcall	_I2C_Master_Read
  2219  07BC  0873               	movf	?_I2C_Master_Read,w
  2220  07BD  00FB               	movwf	??_MPU6050_Read
  2221  07BE  0874               	movf	?_I2C_Master_Read+1,w
  2222  07BF  00FC               	movwf	??_MPU6050_Read+1
  2223  07C0  087B               	movf	??_MPU6050_Read,w
  2224  07C1  00FC               	movwf	??_MPU6050_Read+1
  2225  07C2  01FB               	clrf	??_MPU6050_Read
  2226  07C3  3185  2538  3187   	fcall	_I2C_Master_Read
  2227  07C6  0873               	movf	?_I2C_Master_Read,w
  2228  07C7  047B               	iorwf	??_MPU6050_Read,w
  2229  07C8  0020               	movlb	0	; select bank0
  2230  07C9  00AA               	movwf	MPU6050_Read@Sensor+10
  2231  07CA  0874               	movf	?_I2C_Master_Read+1,w
  2232  07CB  047C               	iorwf	??_MPU6050_Read+1,w
  2233  07CC  00AB               	movwf	MPU6050_Read@Sensor+11
  2234                           
  2235                           ;MPU6050.c: 34: Sensor.Gyro.Z = ( I2C_Master_Read() << 8 ) | I2C_Master_Read();
  2236  07CD  3185  2538  3187   	fcall	_I2C_Master_Read
  2237  07D0  0873               	movf	?_I2C_Master_Read,w
  2238  07D1  00FB               	movwf	??_MPU6050_Read
  2239  07D2  0874               	movf	?_I2C_Master_Read+1,w
  2240  07D3  00FC               	movwf	??_MPU6050_Read+1
  2241  07D4  087B               	movf	??_MPU6050_Read,w
  2242  07D5  00FC               	movwf	??_MPU6050_Read+1
  2243  07D6  01FB               	clrf	??_MPU6050_Read
  2244  07D7  3185  2538  3187   	fcall	_I2C_Master_Read
  2245  07DA  0873               	movf	?_I2C_Master_Read,w
  2246  07DB  047B               	iorwf	??_MPU6050_Read,w
  2247  07DC  0020               	movlb	0	; select bank0
  2248  07DD  00AC               	movwf	MPU6050_Read@Sensor+12
  2249  07DE  0874               	movf	?_I2C_Master_Read+1,w
  2250  07DF  047C               	iorwf	??_MPU6050_Read+1,w
  2251  07E0  00AD               	movwf	MPU6050_Read@Sensor+13
  2252                           
  2253                           ;MPU6050.c: 35: I2C_Master_Stop();
  2254  07E1  3184  24C3  3187   	fcall	_I2C_Master_Stop
  2255                           
  2256                           ;MPU6050.c: 36: Sensor.Temperature += 12421;
  2257  07E4  3085               	movlw	133
  2258  07E5  0020               	movlb	0	; select bank0
  2259  07E6  07A6               	addwf	MPU6050_Read@Sensor+6,f
  2260  07E7  3030               	movlw	48
  2261  07E8  3DA7               	addwfc	MPU6050_Read@Sensor+7,f
  2262                           
  2263                           ;MPU6050.c: 37: Sensor.Temperature /= 340;
  2264  07E9  3054               	movlw	84
  2265  07EA  00F0               	movwf	___awdiv@divisor
  2266  07EB  3001               	movlw	1
  2267  07EC  00F1               	movwf	___awdiv@divisor+1
  2268  07ED  0827               	movf	MPU6050_Read@Sensor+7,w
  2269  07EE  00F3               	movwf	___awdiv@dividend+1
  2270  07EF  0826               	movf	MPU6050_Read@Sensor+6,w
  2271  07F0  00F2               	movwf	___awdiv@dividend
  2272  07F1  3186  260E         	fcall	___awdiv
  2273  07F3  0871               	movf	?___awdiv+1,w
  2274  07F4  0020               	movlb	0	; select bank0
  2275  07F5  00A7               	movwf	MPU6050_Read@Sensor+7
  2276  07F6  0870               	movf	?___awdiv,w
  2277  07F7  00A6               	movwf	MPU6050_Read@Sensor+6
  2278                           
  2279                           ;MPU6050.c: 38: return Sensor.Gyro.X;
  2280  07F8  0829               	movf	MPU6050_Read@Sensor+9,w
  2281  07F9  00FA               	movwf	?_MPU6050_Read+1
  2282  07FA  0828               	movf	MPU6050_Read@Sensor+8,w
  2283  07FB  00F9               	movwf	?_MPU6050_Read
  2284  07FC  0008               	return
  2285  07FD                     __end_of_MPU6050_Read:	
  2286                           
  2287                           	psect	text4
  2288  060E                     __ptext4:	
  2289 ;; *************** function ___awdiv *****************
  2290 ;; Defined at:
  2291 ;;		line 6 in file "C:\Program Files (x86)\Microchip\xc8\v1.45\sources\common\awdiv.c"
  2292 ;; Parameters:    Size  Location     Type
  2293 ;;  divisor         2    0[COMMON] int 
  2294 ;;  dividend        2    2[COMMON] int 
  2295 ;; Auto vars:     Size  Location     Type
  2296 ;;  quotient        2    7[COMMON] int 
  2297 ;;  sign            1    6[COMMON] unsigned char 
  2298 ;;  counter         1    5[COMMON] unsigned char 
  2299 ;; Return value:  Size  Location     Type
  2300 ;;                  2    0[COMMON] int 
  2301 ;; Registers used:
  2302 ;;		wreg, status,2, status,0
  2303 ;; Tracked objects:
  2304 ;;		On entry : 0/0
  2305 ;;		On exit  : 0/0
  2306 ;;		Unchanged: 0/0
  2307 ;; Data sizes:     COMMON   BANK0   BANK1   BANK2   BANK3   BANK4   BANK5   BANK6   BANK7   BANK8   BANK9  BANK10  BANK1
      +1  BANK12
  2308 ;;      Params:         4       0       0       0       0       0       0       0       0       0       0       0       
      +0       0
  2309 ;;      Locals:         4       0       0       0       0       0       0       0       0       0       0       0       
      +0       0
  2310 ;;      Temps:          1       0       0       0       0       0       0       0       0       0       0       0       
      +0       0
  2311 ;;      Totals:         9       0       0       0       0       0       0       0       0       0       0       0       
      +0       0
  2312 ;;Total ram usage:        9 bytes
  2313 ;; Hardware stack levels used:    1
  2314 ;; This function calls:
  2315 ;;		Nothing
  2316 ;; This function is called by:
  2317 ;;		_MPU6050_Read
  2318 ;; This function uses a non-reentrant model
  2319 ;;
  2320                           
  2321                           
  2322                           ;psect for function ___awdiv
  2323  060E                     ___awdiv:	
  2324                           
  2325                           ;incstack = 0
  2326                           ; Regs used in ___awdiv: [wreg+status,2+status,0]
  2327  060E  01F6               	clrf	___awdiv@sign
  2328  060F  1FF1               	btfss	___awdiv@divisor+1,7
  2329  0610  2E18               	goto	l1022
  2330  0611  09F0               	comf	___awdiv@divisor,f
  2331  0612  09F1               	comf	___awdiv@divisor+1,f
  2332  0613  0AF0               	incf	___awdiv@divisor,f
  2333  0614  1903               	skipnz
  2334  0615  0AF1               	incf	___awdiv@divisor+1,f
  2335  0616  01F6               	clrf	___awdiv@sign
  2336  0617  0AF6               	incf	___awdiv@sign,f
  2337  0618                     l1022:	
  2338  0618  1FF3               	btfss	___awdiv@dividend+1,7
  2339  0619  2E23               	goto	l1028
  2340  061A  09F2               	comf	___awdiv@dividend,f
  2341  061B  09F3               	comf	___awdiv@dividend+1,f
  2342  061C  0AF2               	incf	___awdiv@dividend,f
  2343  061D  1903               	skipnz
  2344  061E  0AF3               	incf	___awdiv@dividend+1,f
  2345  061F  3001               	movlw	1
  2346  0620  00F4               	movwf	??___awdiv
  2347  0621  0874               	movf	??___awdiv,w
  2348  0622  06F6               	xorwf	___awdiv@sign,f
  2349  0623                     l1028:	
  2350  0623  01F7               	clrf	___awdiv@quotient
  2351  0624  01F8               	clrf	___awdiv@quotient+1
  2352  0625  0870               	movf	___awdiv@divisor,w
  2353  0626  0471               	iorwf	___awdiv@divisor+1,w
  2354  0627  1903               	btfsc	3,2
  2355  0628  2E52               	goto	l1050
  2356  0629  01F5               	clrf	___awdiv@counter
  2357  062A  0AF5               	incf	___awdiv@counter,f
  2358  062B                     l1038:	
  2359  062B  1BF1               	btfsc	___awdiv@divisor+1,7
  2360  062C  2E37               	goto	l1040
  2361  062D  3001               	movlw	1
  2362  062E                     u355:	
  2363  062E  35F0               	lslf	___awdiv@divisor,f
  2364  062F  0DF1               	rlf	___awdiv@divisor+1,f
  2365  0630  0B89               	decfsz	9,f
  2366  0631  2E2E               	goto	u355
  2367  0632  3001               	movlw	1
  2368  0633  00F4               	movwf	??___awdiv
  2369  0634  0874               	movf	??___awdiv,w
  2370  0635  07F5               	addwf	___awdiv@counter,f
  2371  0636  2E2B               	goto	l1038
  2372  0637                     l1040:	
  2373  0637  3001               	movlw	1
  2374  0638                     u375:	
  2375  0638  35F7               	lslf	___awdiv@quotient,f
  2376  0639  0DF8               	rlf	___awdiv@quotient+1,f
  2377  063A  0B89               	decfsz	9,f
  2378  063B  2E38               	goto	u375
  2379  063C  0871               	movf	___awdiv@divisor+1,w
  2380  063D  0273               	subwf	___awdiv@dividend+1,w
  2381  063E  1D03               	skipz
  2382  063F  2E42               	goto	u385
  2383  0640  0870               	movf	___awdiv@divisor,w
  2384  0641  0272               	subwf	___awdiv@dividend,w
  2385  0642                     u385:	
  2386  0642  1C03               	skipc
  2387  0643  2E49               	goto	l1046
  2388  0644  0870               	movf	___awdiv@divisor,w
  2389  0645  02F2               	subwf	___awdiv@dividend,f
  2390  0646  0871               	movf	___awdiv@divisor+1,w
  2391  0647  3BF3               	subwfb	___awdiv@dividend+1,f
  2392  0648  1477               	bsf	___awdiv@quotient,0
  2393  0649                     l1046:	
  2394  0649  3001               	movlw	1
  2395  064A                     u395:	
  2396  064A  36F1               	lsrf	___awdiv@divisor+1,f
  2397  064B  0CF0               	rrf	___awdiv@divisor,f
  2398  064C  0B89               	decfsz	9,f
  2399  064D  2E4A               	goto	u395
  2400  064E  3001               	movlw	1
  2401  064F  02F5               	subwf	___awdiv@counter,f
  2402  0650  1D03               	btfss	3,2
  2403  0651  2E37               	goto	l1040
  2404  0652                     l1050:	
  2405  0652  0876               	movf	___awdiv@sign,w
  2406  0653  1903               	btfsc	3,2
  2407  0654  2E5A               	goto	l1054
  2408  0655  09F7               	comf	___awdiv@quotient,f
  2409  0656  09F8               	comf	___awdiv@quotient+1,f
  2410  0657  0AF7               	incf	___awdiv@quotient,f
  2411  0658  1903               	skipnz
  2412  0659  0AF8               	incf	___awdiv@quotient+1,f
  2413  065A                     l1054:	
  2414  065A  0878               	movf	___awdiv@quotient+1,w
  2415  065B  00F1               	movwf	?___awdiv+1
  2416  065C  0877               	movf	___awdiv@quotient,w
  2417  065D  00F0               	movwf	?___awdiv
  2418  065E  0008               	return
  2419  065F                     __end_of___awdiv:	
  2420                           
  2421                           	psect	text5
  2422  0538                     __ptext5:	
  2423 ;; *************** function _I2C_Master_Read *****************
  2424 ;; Defined at:
  2425 ;;		line 50 in file "i2c.c"
  2426 ;; Parameters:    Size  Location     Type
  2427 ;;		None
  2428 ;; Auto vars:     Size  Location     Type
  2429 ;;  temp            1    7[COMMON] unsigned char 
  2430 ;; Return value:  Size  Location     Type
  2431 ;;                  2    3[COMMON] int 
  2432 ;; Registers used:
  2433 ;;		wreg, status,2, status,0, pclath, cstack
  2434 ;; Tracked objects:
  2435 ;;		On entry : 0/0
  2436 ;;		On exit  : 0/0
  2437 ;;		Unchanged: 0/0
  2438 ;; Data sizes:     COMMON   BANK0   BANK1   BANK2   BANK3   BANK4   BANK5   BANK6   BANK7   BANK8   BANK9  BANK10  BANK1
      +1  BANK12
  2439 ;;      Params:         2       0       0       0       0       0       0       0       0       0       0       0       
      +0       0
  2440 ;;      Locals:         1       0       0       0       0       0       0       0       0       0       0       0       
      +0       0
  2441 ;;      Temps:          2       0       0       0       0       0       0       0       0       0       0       0       
      +0       0
  2442 ;;      Totals:         5       0       0       0       0       0       0       0       0       0       0       0       
      +0       0
  2443 ;;Total ram usage:        5 bytes
  2444 ;; Hardware stack levels used:    1
  2445 ;; Hardware stack levels required when called:    2
  2446 ;; This function calls:
  2447 ;;		_I2C_Master_Wait
  2448 ;; This function is called by:
  2449 ;;		_MPU6050_Read
  2450 ;;		_regRead
  2451 ;; This function uses a non-reentrant model
  2452 ;;
  2453                           
  2454                           
  2455                           ;psect for function _I2C_Master_Read
  2456  0538                     _I2C_Master_Read:	
  2457                           
  2458                           ;i2c.c: 52: char temp;
  2459                           ;i2c.c: 53: I2C_Master_Wait();
  2460                           
  2461                           ;incstack = 0
  2462                           ; Regs used in _I2C_Master_Read: [wreg+status,2+status,0+pclath+cstack]
  2463  0538  3185  254F  3185   	fcall	_I2C_Master_Wait
  2464                           
  2465                           ;i2c.c: 54: RCEN = 1;
  2466  053B  0024               	movlb	4	; select bank4
  2467  053C  1596               	bsf	22,3	;volatile
  2468                           
  2469                           ;i2c.c: 55: I2C_Master_Wait();
  2470  053D  3185  254F  3185   	fcall	_I2C_Master_Wait
  2471                           
  2472                           ;i2c.c: 56: temp = SSPBUF;
  2473  0540  0024               	movlb	4	; select bank4
  2474  0541  0811               	movf	17,w	;volatile
  2475  0542  00F5               	movwf	??_I2C_Master_Read
  2476  0543  0875               	movf	??_I2C_Master_Read,w
  2477  0544  00F7               	movwf	I2C_Master_Read@temp
  2478                           
  2479                           ;i2c.c: 57: I2C_Master_Wait();
  2480  0545  3185  254F         	fcall	_I2C_Master_Wait
  2481                           
  2482                           ;i2c.c: 60: return temp;
  2483  0547  0877               	movf	I2C_Master_Read@temp,w
  2484  0548  00F5               	movwf	??_I2C_Master_Read
  2485  0549  01F6               	clrf	??_I2C_Master_Read+1
  2486  054A  0875               	movf	??_I2C_Master_Read,w
  2487  054B  00F3               	movwf	?_I2C_Master_Read
  2488  054C  0876               	movf	??_I2C_Master_Read+1,w
  2489  054D  00F4               	movwf	?_I2C_Master_Read+1
  2490  054E  0008               	return
  2491  054F                     __end_of_I2C_Master_Read:	
  2492                           
  2493                           	psect	text6
  2494  0592                     __ptext6:	
  2495 ;; *************** function _MPU6050_Init *****************
  2496 ;; Defined at:
  2497 ;;		line 3 in file "MPU6050.c"
  2498 ;; Parameters:    Size  Location     Type
  2499 ;;		None
  2500 ;; Auto vars:     Size  Location     Type
  2501 ;;		None
  2502 ;; Return value:  Size  Location     Type
  2503 ;;                  1    wreg      void 
  2504 ;; Registers used:
  2505 ;;		wreg, status,2, status,0, pclath, cstack
  2506 ;; Tracked objects:
  2507 ;;		On entry : 0/0
  2508 ;;		On exit  : 0/0
  2509 ;;		Unchanged: 0/0
  2510 ;; Data sizes:     COMMON   BANK0   BANK1   BANK2   BANK3   BANK4   BANK5   BANK6   BANK7   BANK8   BANK9  BANK10  BANK1
      +1  BANK12
  2511 ;;      Params:         0       0       0       0       0       0       0       0       0       0       0       0       
      +0       0
  2512 ;;      Locals:         0       0       0       0       0       0       0       0       0       0       0       0       
      +0       0
  2513 ;;      Temps:          0       0       0       0       0       0       0       0       0       0       0       0       
      +0       0
  2514 ;;      Totals:         0       0       0       0       0       0       0       0       0       0       0       0       
      +0       0
  2515 ;;Total ram usage:        0 bytes
  2516 ;; Hardware stack levels used:    1
  2517 ;; Hardware stack levels required when called:    3
  2518 ;; This function calls:
  2519 ;;		_I2C_Master_Start
  2520 ;;		_I2C_Master_Stop
  2521 ;;		_I2C_Master_Write
  2522 ;; This function is called by:
  2523 ;;		_main
  2524 ;; This function uses a non-reentrant model
  2525 ;;
  2526                           
  2527                           
  2528                           ;psect for function _MPU6050_Init
  2529  0592                     _MPU6050_Init:	
  2530                           
  2531                           ;MPU6050.c: 5: I2C_Master_Start();
  2532                           
  2533                           ;incstack = 0
  2534                           ; Regs used in _MPU6050_Init: [wreg+status,2+status,0+pclath+cstack]
  2535  0592  3184  24C8  3185   	fcall	_I2C_Master_Start
  2536                           
  2537                           ;MPU6050.c: 6: I2C_Master_Write( 0xD0 );
  2538  0595  30D0               	movlw	208
  2539  0596  3184  24CD  3185   	fcall	_I2C_Master_Write
  2540                           
  2541                           ;MPU6050.c: 7: I2C_Master_Write( 0x6B );
  2542  0599  306B               	movlw	107
  2543  059A  3184  24CD  3185   	fcall	_I2C_Master_Write
  2544                           
  2545                           ;MPU6050.c: 8: I2C_Master_Write( 2 );
  2546  059D  3002               	movlw	2
  2547  059E  3184  24CD  3185   	fcall	_I2C_Master_Write
  2548                           
  2549                           ;MPU6050.c: 9: I2C_Master_Write( 0 );
  2550  05A1  3000               	movlw	0
  2551  05A2  3184  24CD  3185   	fcall	_I2C_Master_Write
  2552                           
  2553                           ;MPU6050.c: 10: I2C_Master_Stop();
  2554  05A5  3184  24C3  3185   	fcall	_I2C_Master_Stop
  2555                           
  2556                           ;MPU6050.c: 12: I2C_Master_Start();
  2557  05A8  3184  24C8  3185   	fcall	_I2C_Master_Start
  2558                           
  2559                           ;MPU6050.c: 13: I2C_Master_Write( 0xD0 );
  2560  05AB  30D0               	movlw	208
  2561  05AC  3184  24CD  3185   	fcall	_I2C_Master_Write
  2562                           
  2563                           ;MPU6050.c: 14: I2C_Master_Write( 0x1B );
  2564  05AF  301B               	movlw	27
  2565  05B0  3184  24CD  3185   	fcall	_I2C_Master_Write
  2566                           
  2567                           ;MPU6050.c: 15: I2C_Master_Write( 0 );
  2568  05B3  3000               	movlw	0
  2569  05B4  3184  24CD  3185   	fcall	_I2C_Master_Write
  2570                           
  2571                           ;MPU6050.c: 16: I2C_Master_Write( 0 );
  2572  05B7  3000               	movlw	0
  2573  05B8  3184  24CD  3185   	fcall	_I2C_Master_Write
  2574                           
  2575                           ;MPU6050.c: 17: I2C_Master_Stop();
  2576  05BB  3184  24C3         	fcall	_I2C_Master_Stop
  2577  05BD  0008               	return
  2578  05BE                     __end_of_MPU6050_Init:	
  2579                           
  2580                           	psect	text7
  2581  04C8                     __ptext7:	
  2582 ;; *************** function _I2C_Master_Start *****************
  2583 ;; Defined at:
  2584 ;;		line 30 in file "i2c.c"
  2585 ;; Parameters:    Size  Location     Type
  2586 ;;		None
  2587 ;; Auto vars:     Size  Location     Type
  2588 ;;		None
  2589 ;; Return value:  Size  Location     Type
  2590 ;;                  1    wreg      void 
  2591 ;; Registers used:
  2592 ;;		wreg, status,2, status,0, pclath, cstack
  2593 ;; Tracked objects:
  2594 ;;		On entry : 0/0
  2595 ;;		On exit  : 0/0
  2596 ;;		Unchanged: 0/0
  2597 ;; Data sizes:     COMMON   BANK0   BANK1   BANK2   BANK3   BANK4   BANK5   BANK6   BANK7   BANK8   BANK9  BANK10  BANK1
      +1  BANK12
  2598 ;;      Params:         0       0       0       0       0       0       0       0       0       0       0       0       
      +0       0
  2599 ;;      Locals:         0       0       0       0       0       0       0       0       0       0       0       0       
      +0       0
  2600 ;;      Temps:          0       0       0       0       0       0       0       0       0       0       0       0       
      +0       0
  2601 ;;      Totals:         0       0       0       0       0       0       0       0       0       0       0       0       
      +0       0
  2602 ;;Total ram usage:        0 bytes
  2603 ;; Hardware stack levels used:    1
  2604 ;; Hardware stack levels required when called:    2
  2605 ;; This function calls:
  2606 ;;		_I2C_Master_Wait
  2607 ;; This function is called by:
  2608 ;;		_MPU6050_Init
  2609 ;;		_MPU6050_Read
  2610 ;;		_regRead
  2611 ;; This function uses a non-reentrant model
  2612 ;;
  2613                           
  2614                           
  2615                           ;psect for function _I2C_Master_Start
  2616  04C8                     _I2C_Master_Start:	
  2617                           
  2618                           ;i2c.c: 31: I2C_Master_Wait();
  2619                           
  2620                           ;incstack = 0
  2621                           ; Regs used in _I2C_Master_Start: [wreg+status,2+status,0+pclath+cstack]
  2622  04C8  3185  254F         	fcall	_I2C_Master_Wait
  2623                           
  2624                           ;i2c.c: 32: SEN = 1;
  2625  04CA  0024               	movlb	4	; select bank4
  2626  04CB  1416               	bsf	22,0	;volatile
  2627  04CC  0008               	return
  2628  04CD                     __end_of_I2C_Master_Start:	
  2629                           
  2630                           	psect	text8
  2631  04F0                     __ptext8:	
  2632 ;; *************** function _Initialize_UART *****************
  2633 ;; Defined at:
  2634 ;;		line 6 in file "uart.c"
  2635 ;; Parameters:    Size  Location     Type
  2636 ;;		None
  2637 ;; Auto vars:     Size  Location     Type
  2638 ;;		None
  2639 ;; Return value:  Size  Location     Type
  2640 ;;                  1    wreg      void 
  2641 ;; Registers used:
  2642 ;;		wreg
  2643 ;; Tracked objects:
  2644 ;;		On entry : 0/0
  2645 ;;		On exit  : 0/0
  2646 ;;		Unchanged: 0/0
  2647 ;; Data sizes:     COMMON   BANK0   BANK1   BANK2   BANK3   BANK4   BANK5   BANK6   BANK7   BANK8   BANK9  BANK10  BANK1
      +1  BANK12
  2648 ;;      Params:         0       0       0       0       0       0       0       0       0       0       0       0       
      +0       0
  2649 ;;      Locals:         0       0       0       0       0       0       0       0       0       0       0       0       
      +0       0
  2650 ;;      Temps:          0       0       0       0       0       0       0       0       0       0       0       0       
      +0       0
  2651 ;;      Totals:         0       0       0       0       0       0       0       0       0       0       0       0       
      +0       0
  2652 ;;Total ram usage:        0 bytes
  2653 ;; Hardware stack levels used:    1
  2654 ;; This function calls:
  2655 ;;		Nothing
  2656 ;; This function is called by:
  2657 ;;		_main
  2658 ;; This function uses a non-reentrant model
  2659 ;;
  2660                           
  2661                           
  2662                           ;psect for function _Initialize_UART
  2663  04F0                     _Initialize_UART:	
  2664                           
  2665                           ;uart.c: 9: TRISC6 = 0;
  2666                           
  2667                           ;incstack = 0
  2668                           ; Regs used in _Initialize_UART: [wreg]
  2669  04F0  0021               	movlb	1	; select bank1
  2670  04F1  130E               	bcf	14,6	;volatile
  2671                           
  2672                           ;uart.c: 10: TRISC7 = 1;
  2673  04F2  178E               	bsf	14,7	;volatile
  2674                           
  2675                           ;uart.c: 15: SPBRG = ((16000000L/16)/9600) - 1;
  2676  04F3  3067               	movlw	103
  2677  04F4  0023               	movlb	3	; select bank3
  2678  04F5  009B               	movwf	27	;volatile
  2679                           
  2680                           ;uart.c: 16: BRGH = 1;
  2681  04F6  151E               	bsf	30,2	;volatile
  2682                           
  2683                           ;uart.c: 20: SYNC = 0;
  2684  04F7  121E               	bcf	30,4	;volatile
  2685                           
  2686                           ;uart.c: 21: SPEN = 1;
  2687  04F8  179D               	bsf	29,7	;volatile
  2688                           
  2689                           ;uart.c: 25: TXEN = 1;
  2690  04F9  169E               	bsf	30,5	;volatile
  2691                           
  2692                           ;uart.c: 26: CREN = 1;
  2693  04FA  161D               	bsf	29,4	;volatile
  2694                           
  2695                           ;uart.c: 30: TX9 = 0;
  2696  04FB  131E               	bcf	30,6	;volatile
  2697                           
  2698                           ;uart.c: 31: RX9 = 0;
  2699  04FC  131D               	bcf	29,6	;volatile
  2700  04FD  0008               	return
  2701  04FE                     __end_of_Initialize_UART:	
  2702                           
  2703                           	psect	text9
  2704  05BE                     __ptext9:	
  2705 ;; *************** function _Init_QVGA *****************
  2706 ;; Defined at:
  2707 ;;		line 100 in file "OV7670.c"
  2708 ;; Parameters:    Size  Location     Type
  2709 ;;		None
  2710 ;; Auto vars:     Size  Location     Type
  2711 ;;		None
  2712 ;; Return value:  Size  Location     Type
  2713 ;;                  1    wreg      void 
  2714 ;; Registers used:
  2715 ;;		wreg, status,2, status,0, pclath, cstack
  2716 ;; Tracked objects:
  2717 ;;		On entry : 0/0
  2718 ;;		On exit  : 0/0
  2719 ;;		Unchanged: 0/0
  2720 ;; Data sizes:     COMMON   BANK0   BANK1   BANK2   BANK3   BANK4   BANK5   BANK6   BANK7   BANK8   BANK9  BANK10  BANK1
      +1  BANK12
  2721 ;;      Params:         0       0       0       0       0       0       0       0       0       0       0       0       
      +0       0
  2722 ;;      Locals:         0       0       0       0       0       0       0       0       0       0       0       0       
      +0       0
  2723 ;;      Temps:          1       0       0       0       0       0       0       0       0       0       0       0       
      +0       0
  2724 ;;      Totals:         1       0       0       0       0       0       0       0       0       0       0       0       
      +0       0
  2725 ;;Total ram usage:        1 bytes
  2726 ;; Hardware stack levels used:    1
  2727 ;; Hardware stack levels required when called:    4
  2728 ;; This function calls:
  2729 ;;		_regWrite
  2730 ;; This function is called by:
  2731 ;;		_main
  2732 ;; This function uses a non-reentrant model
  2733 ;;
  2734                           
  2735                           
  2736                           ;psect for function _Init_QVGA
  2737  05BE                     _Init_QVGA:	
  2738                           
  2739                           ;OV7670.c: 101: regWrite(0x0c, 0x04);
  2740                           
  2741                           ;incstack = 0
  2742                           ; Regs used in _Init_QVGA: [wreg+status,2+status,0+pclath+cstack]
  2743  05BE  3004               	movlw	4
  2744  05BF  00F6               	movwf	??_Init_QVGA
  2745  05C0  0876               	movf	??_Init_QVGA,w
  2746  05C1  00F4               	movwf	regWrite@data
  2747  05C2  300C               	movlw	12
  2748  05C3  3185  2511  3185   	fcall	_regWrite
  2749                           
  2750                           ;OV7670.c: 102: regWrite(0x3e, 0x19);
  2751  05C6  3019               	movlw	25
  2752  05C7  00F6               	movwf	??_Init_QVGA
  2753  05C8  0876               	movf	??_Init_QVGA,w
  2754  05C9  00F4               	movwf	regWrite@data
  2755  05CA  303E               	movlw	62
  2756  05CB  3185  2511  3185   	fcall	_regWrite
  2757                           
  2758                           ;OV7670.c: 103: regWrite(0x72, 0x11);
  2759  05CE  3011               	movlw	17
  2760  05CF  00F6               	movwf	??_Init_QVGA
  2761  05D0  0876               	movf	??_Init_QVGA,w
  2762  05D1  00F4               	movwf	regWrite@data
  2763  05D2  3072               	movlw	114
  2764  05D3  3185  2511  3185   	fcall	_regWrite
  2765                           
  2766                           ;OV7670.c: 104: regWrite(0x73, 0xF1);
  2767  05D6  30F1               	movlw	241
  2768  05D7  00F6               	movwf	??_Init_QVGA
  2769  05D8  0876               	movf	??_Init_QVGA,w
  2770  05D9  00F4               	movwf	regWrite@data
  2771  05DA  3073               	movlw	115
  2772  05DB  3185  2511  3185   	fcall	_regWrite
  2773                           
  2774                           ;OV7670.c: 105: regWrite(0x17, 0x16);
  2775  05DE  3016               	movlw	22
  2776  05DF  00F6               	movwf	??_Init_QVGA
  2777  05E0  0876               	movf	??_Init_QVGA,w
  2778  05E1  00F4               	movwf	regWrite@data
  2779  05E2  3017               	movlw	23
  2780  05E3  3185  2511  3185   	fcall	_regWrite
  2781                           
  2782                           ;OV7670.c: 106: regWrite(0x18, 0x04);
  2783  05E6  3004               	movlw	4
  2784  05E7  00F6               	movwf	??_Init_QVGA
  2785  05E8  0876               	movf	??_Init_QVGA,w
  2786  05E9  00F4               	movwf	regWrite@data
  2787  05EA  3018               	movlw	24
  2788  05EB  3185  2511  3185   	fcall	_regWrite
  2789                           
  2790                           ;OV7670.c: 107: regWrite(0x32, 0xA4);
  2791  05EE  30A4               	movlw	164
  2792  05EF  00F6               	movwf	??_Init_QVGA
  2793  05F0  0876               	movf	??_Init_QVGA,w
  2794  05F1  00F4               	movwf	regWrite@data
  2795  05F2  3032               	movlw	50
  2796  05F3  3185  2511  3185   	fcall	_regWrite
  2797                           
  2798                           ;OV7670.c: 108: regWrite(0x19, 0x02);
  2799  05F6  3002               	movlw	2
  2800  05F7  00F6               	movwf	??_Init_QVGA
  2801  05F8  0876               	movf	??_Init_QVGA,w
  2802  05F9  00F4               	movwf	regWrite@data
  2803  05FA  3019               	movlw	25
  2804  05FB  3185  2511  3185   	fcall	_regWrite
  2805                           
  2806                           ;OV7670.c: 109: regWrite(0x1a, 0x7A);
  2807  05FE  307A               	movlw	122
  2808  05FF  00F6               	movwf	??_Init_QVGA
  2809  0600  0876               	movf	??_Init_QVGA,w
  2810  0601  00F4               	movwf	regWrite@data
  2811  0602  301A               	movlw	26
  2812  0603  3185  2511  3185   	fcall	_regWrite
  2813                           
  2814                           ;OV7670.c: 110: regWrite(0x03, 0x0A);
  2815  0606  300A               	movlw	10
  2816  0607  00F6               	movwf	??_Init_QVGA
  2817  0608  0876               	movf	??_Init_QVGA,w
  2818  0609  00F4               	movwf	regWrite@data
  2819  060A  3003               	movlw	3
  2820  060B  3185  2511         	fcall	_regWrite
  2821  060D  0008               	return
  2822  060E                     __end_of_Init_QVGA:	
  2823                           
  2824                           	psect	text10
  2825  06BD                     __ptext10:	
  2826 ;; *************** function _Init_OV7670 *****************
  2827 ;; Defined at:
  2828 ;;		line 78 in file "OV7670.c"
  2829 ;; Parameters:    Size  Location     Type
  2830 ;;		None
  2831 ;; Auto vars:     Size  Location     Type
  2832 ;;		None
  2833 ;; Return value:  Size  Location     Type
  2834 ;;                  1    wreg      void 
  2835 ;; Registers used:
  2836 ;;		wreg, status,2, status,0, pclath, cstack
  2837 ;; Tracked objects:
  2838 ;;		On entry : 0/0
  2839 ;;		On exit  : 0/0
  2840 ;;		Unchanged: 0/0
  2841 ;; Data sizes:     COMMON   BANK0   BANK1   BANK2   BANK3   BANK4   BANK5   BANK6   BANK7   BANK8   BANK9  BANK10  BANK1
      +1  BANK12
  2842 ;;      Params:         0       0       0       0       0       0       0       0       0       0       0       0       
      +0       0
  2843 ;;      Locals:         0       0       0       0       0       0       0       0       0       0       0       0       
      +0       0
  2844 ;;      Temps:          2       0       0       0       0       0       0       0       0       0       0       0       
      +0       0
  2845 ;;      Totals:         2       0       0       0       0       0       0       0       0       0       0       0       
      +0       0
  2846 ;;Total ram usage:        2 bytes
  2847 ;; Hardware stack levels used:    1
  2848 ;; Hardware stack levels required when called:    4
  2849 ;; This function calls:
  2850 ;;		_regWrite
  2851 ;; This function is called by:
  2852 ;;		_main
  2853 ;; This function uses a non-reentrant model
  2854 ;;
  2855                           
  2856                           
  2857                           ;psect for function _Init_OV7670
  2858  06BD                     _Init_OV7670:	
  2859                           
  2860                           ;OV7670.c: 80: regWrite(0x12,0x80);
  2861                           
  2862                           ;incstack = 0
  2863                           ; Regs used in _Init_OV7670: [wreg+status,2+status,0+pclath+cstack]
  2864  06BD  3080               	movlw	128
  2865  06BE  00F6               	movwf	??_Init_OV7670
  2866  06BF  0876               	movf	??_Init_OV7670,w
  2867  06C0  00F4               	movwf	regWrite@data
  2868  06C1  3012               	movlw	18
  2869  06C2  3185  2511  3186   	fcall	_regWrite
  2870                           
  2871                           ;OV7670.c: 81: _delay((unsigned long)((100)*(16000000L/4000.0)));
  2872  06C5  3003               	movlw	3
  2873  06C6  00F7               	movwf	??_Init_OV7670+1
  2874  06C7  3008               	movlw	8
  2875  06C8  00F6               	movwf	??_Init_OV7670
  2876  06C9  3077               	movlw	119
  2877  06CA                     u547:	
  2878  06CA  0B89               	decfsz	9,f
  2879  06CB  2ECA               	goto	u547
  2880  06CC  0BF6               	decfsz	??_Init_OV7670,f
  2881  06CD  2ECA               	goto	u547
  2882  06CE  0BF7               	decfsz	??_Init_OV7670+1,f
  2883  06CF  2ECA               	goto	u547
  2884  06D0  0000               	nop
  2885                           
  2886                           ;OV7670.c: 82: regWrite(0x3A, 0x04);
  2887  06D1  3004               	movlw	4
  2888  06D2  00F6               	movwf	??_Init_OV7670
  2889  06D3  0876               	movf	??_Init_OV7670,w
  2890  06D4  00F4               	movwf	regWrite@data
  2891  06D5  303A               	movlw	58
  2892  06D6  3185  2511  3186   	fcall	_regWrite
  2893                           
  2894                           ;OV7670.c: 84: regWrite(0x13, 0xC0);
  2895  06D9  30C0               	movlw	192
  2896  06DA  00F6               	movwf	??_Init_OV7670
  2897  06DB  0876               	movf	??_Init_OV7670,w
  2898  06DC  00F4               	movwf	regWrite@data
  2899  06DD  3013               	movlw	19
  2900  06DE  3185  2511  3186   	fcall	_regWrite
  2901                           
  2902                           ;OV7670.c: 85: regWrite(0x00, 0x00);
  2903  06E1  01F4               	clrf	regWrite@data
  2904  06E2  3000               	movlw	0
  2905  06E3  3185  2511  3186   	fcall	_regWrite
  2906                           
  2907                           ;OV7670.c: 86: regWrite(0x10, 0x00);
  2908  06E6  01F4               	clrf	regWrite@data
  2909  06E7  3010               	movlw	16
  2910  06E8  3185  2511  3186   	fcall	_regWrite
  2911                           
  2912                           ;OV7670.c: 87: regWrite(0x0d, 0x40);
  2913  06EB  3040               	movlw	64
  2914  06EC  00F6               	movwf	??_Init_OV7670
  2915  06ED  0876               	movf	??_Init_OV7670,w
  2916  06EE  00F4               	movwf	regWrite@data
  2917  06EF  300D               	movlw	13
  2918  06F0  3185  2511  3186   	fcall	_regWrite
  2919                           
  2920                           ;OV7670.c: 88: regWrite(0x14, 0x18);
  2921  06F3  3018               	movlw	24
  2922  06F4  00F6               	movwf	??_Init_OV7670
  2923  06F5  0876               	movf	??_Init_OV7670,w
  2924  06F6  00F4               	movwf	regWrite@data
  2925  06F7  3014               	movlw	20
  2926  06F8  3185  2511  3186   	fcall	_regWrite
  2927                           
  2928                           ;OV7670.c: 89: regWrite(0x24, 0x95);
  2929  06FB  3095               	movlw	149
  2930  06FC  00F6               	movwf	??_Init_OV7670
  2931  06FD  0876               	movf	??_Init_OV7670,w
  2932  06FE  00F4               	movwf	regWrite@data
  2933  06FF  3024               	movlw	36
  2934  0700  3185  2511  3186   	fcall	_regWrite
  2935                           
  2936                           ;OV7670.c: 90: regWrite(0x25, 0x33);
  2937  0703  3033               	movlw	51
  2938  0704  00F6               	movwf	??_Init_OV7670
  2939  0705  0876               	movf	??_Init_OV7670,w
  2940  0706  00F4               	movwf	regWrite@data
  2941  0707  3025               	movlw	37
  2942  0708  3185  2511  3186   	fcall	_regWrite
  2943                           
  2944                           ;OV7670.c: 91: regWrite(0x13, 0xC5);
  2945  070B  30C5               	movlw	197
  2946  070C  00F6               	movwf	??_Init_OV7670
  2947  070D  0876               	movf	??_Init_OV7670,w
  2948  070E  00F4               	movwf	regWrite@data
  2949  070F  3013               	movlw	19
  2950  0710  3185  2511  3186   	fcall	_regWrite
  2951                           
  2952                           ;OV7670.c: 92: regWrite(0x6a, 0x40);
  2953  0713  3040               	movlw	64
  2954  0714  00F6               	movwf	??_Init_OV7670
  2955  0715  0876               	movf	??_Init_OV7670,w
  2956  0716  00F4               	movwf	regWrite@data
  2957  0717  306A               	movlw	106
  2958  0718  3185  2511  3186   	fcall	_regWrite
  2959                           
  2960                           ;OV7670.c: 93: regWrite(0x01, 0x40);
  2961  071B  3040               	movlw	64
  2962  071C  00F6               	movwf	??_Init_OV7670
  2963  071D  0876               	movf	??_Init_OV7670,w
  2964  071E  00F4               	movwf	regWrite@data
  2965  071F  3001               	movlw	1
  2966  0720  3185  2511  3186   	fcall	_regWrite
  2967                           
  2968                           ;OV7670.c: 94: regWrite(0x02, 0x60);
  2969  0723  3060               	movlw	96
  2970  0724  00F6               	movwf	??_Init_OV7670
  2971  0725  0876               	movf	??_Init_OV7670,w
  2972  0726  00F4               	movwf	regWrite@data
  2973  0727  3002               	movlw	2
  2974  0728  3185  2511  3186   	fcall	_regWrite
  2975                           
  2976                           ;OV7670.c: 95: regWrite(0x13, 0xC7);
  2977  072B  30C7               	movlw	199
  2978  072C  00F6               	movwf	??_Init_OV7670
  2979  072D  0876               	movf	??_Init_OV7670,w
  2980  072E  00F4               	movwf	regWrite@data
  2981  072F  3013               	movlw	19
  2982  0730  3185  2511  3186   	fcall	_regWrite
  2983                           
  2984                           ;OV7670.c: 96: regWrite(0x41, 0x08);
  2985  0733  3008               	movlw	8
  2986  0734  00F6               	movwf	??_Init_OV7670
  2987  0735  0876               	movf	??_Init_OV7670,w
  2988  0736  00F4               	movwf	regWrite@data
  2989  0737  3041               	movlw	65
  2990  0738  3185  2511  3186   	fcall	_regWrite
  2991                           
  2992                           ;OV7670.c: 97: regWrite(0x15, 0x20);
  2993  073B  3020               	movlw	32
  2994  073C  00F6               	movwf	??_Init_OV7670
  2995  073D  0876               	movf	??_Init_OV7670,w
  2996  073E  00F4               	movwf	regWrite@data
  2997  073F  3015               	movlw	21
  2998  0740  3185  2511         	fcall	_regWrite
  2999  0742  0008               	return
  3000  0743                     __end_of_Init_OV7670:	
  3001                           
  3002                           	psect	text11
  3003  0511                     __ptext11:	
  3004 ;; *************** function _regWrite *****************
  3005 ;; Defined at:
  3006 ;;		line 23 in file "OV7670.c"
  3007 ;; Parameters:    Size  Location     Type
  3008 ;;  reg             1    wreg     unsigned char 
  3009 ;;  data            1    4[COMMON] unsigned char 
  3010 ;; Auto vars:     Size  Location     Type
  3011 ;;  reg             1    5[COMMON] unsigned char 
  3012 ;; Return value:  Size  Location     Type
  3013 ;;                  1    wreg      unsigned char 
  3014 ;; Registers used:
  3015 ;;		wreg, status,2, status,0, pclath, cstack
  3016 ;; Tracked objects:
  3017 ;;		On entry : 0/0
  3018 ;;		On exit  : 0/0
  3019 ;;		Unchanged: 0/0
  3020 ;; Data sizes:     COMMON   BANK0   BANK1   BANK2   BANK3   BANK4   BANK5   BANK6   BANK7   BANK8   BANK9  BANK10  BANK1
      +1  BANK12
  3021 ;;      Params:         1       0       0       0       0       0       0       0       0       0       0       0       
      +0       0
  3022 ;;      Locals:         1       0       0       0       0       0       0       0       0       0       0       0       
      +0       0
  3023 ;;      Temps:          0       0       0       0       0       0       0       0       0       0       0       0       
      +0       0
  3024 ;;      Totals:         2       0       0       0       0       0       0       0       0       0       0       0       
      +0       0
  3025 ;;Total ram usage:        2 bytes
  3026 ;; Hardware stack levels used:    1
  3027 ;; Hardware stack levels required when called:    3
  3028 ;; This function calls:
  3029 ;;		_I2C_Master_Restart
  3030 ;;		_I2C_Master_Stop
  3031 ;;		_I2C_Master_Write
  3032 ;; This function is called by:
  3033 ;;		_camInit
  3034 ;;		_Init_OV7670
  3035 ;;		_Init_QVGA
  3036 ;; This function uses a non-reentrant model
  3037 ;;
  3038                           
  3039                           
  3040                           ;psect for function _regWrite
  3041  0511                     _regWrite:	
  3042                           
  3043                           ;incstack = 0
  3044                           ; Regs used in _regWrite: [wreg+status,2+status,0+pclath+cstack]
  3045                           ;regWrite@reg stored from wreg
  3046  0511  00F5               	movwf	regWrite@reg
  3047                           
  3048                           ;OV7670.c: 24: I2C_Master_Restart();
  3049  0512  3184  24BE  3185   	fcall	_I2C_Master_Restart
  3050                           
  3051                           ;OV7670.c: 25: I2C_Master_Write(0x21);
  3052  0515  3021               	movlw	33
  3053  0516  3184  24CD  3185   	fcall	_I2C_Master_Write
  3054                           
  3055                           ;OV7670.c: 26: I2C_Master_Write(reg);
  3056  0519  0875               	movf	regWrite@reg,w
  3057  051A  3184  24CD  3185   	fcall	_I2C_Master_Write
  3058                           
  3059                           ;OV7670.c: 27: I2C_Master_Write(data);
  3060  051D  0874               	movf	regWrite@data,w
  3061  051E  3184  24CD  3185   	fcall	_I2C_Master_Write
  3062                           
  3063                           ;OV7670.c: 28: I2C_Master_Stop();
  3064  0521  3184  24C3         	fcall	_I2C_Master_Stop
  3065  0523  0008               	return
  3066  0524                     __end_of_regWrite:	
  3067                           ;OV7670.c: 30: return 1;
  3068                           ;	Return value of _regWrite is never used
  3069                           
  3070                           
  3071                           	psect	text12
  3072  04CD                     __ptext12:	
  3073 ;; *************** function _I2C_Master_Write *****************
  3074 ;; Defined at:
  3075 ;;		line 45 in file "i2c.c"
  3076 ;; Parameters:    Size  Location     Type
  3077 ;;  d               1    wreg     unsigned char 
  3078 ;; Auto vars:     Size  Location     Type
  3079 ;;  d               1    3[COMMON] unsigned char 
  3080 ;; Return value:  Size  Location     Type
  3081 ;;                  1    wreg      void 
  3082 ;; Registers used:
  3083 ;;		wreg, status,2, status,0, pclath, cstack
  3084 ;; Tracked objects:
  3085 ;;		On entry : 0/0
  3086 ;;		On exit  : 0/0
  3087 ;;		Unchanged: 0/0
  3088 ;; Data sizes:     COMMON   BANK0   BANK1   BANK2   BANK3   BANK4   BANK5   BANK6   BANK7   BANK8   BANK9  BANK10  BANK1
      +1  BANK12
  3089 ;;      Params:         0       0       0       0       0       0       0       0       0       0       0       0       
      +0       0
  3090 ;;      Locals:         1       0       0       0       0       0       0       0       0       0       0       0       
      +0       0
  3091 ;;      Temps:          0       0       0       0       0       0       0       0       0       0       0       0       
      +0       0
  3092 ;;      Totals:         1       0       0       0       0       0       0       0       0       0       0       0       
      +0       0
  3093 ;;Total ram usage:        1 bytes
  3094 ;; Hardware stack levels used:    1
  3095 ;; Hardware stack levels required when called:    2
  3096 ;; This function calls:
  3097 ;;		_I2C_Master_Wait
  3098 ;; This function is called by:
  3099 ;;		_regWrite
  3100 ;;		_MPU6050_Init
  3101 ;;		_MPU6050_Read
  3102 ;;		_regRead
  3103 ;; This function uses a non-reentrant model
  3104 ;;
  3105                           
  3106                           
  3107                           ;psect for function _I2C_Master_Write
  3108  04CD                     _I2C_Master_Write:	
  3109                           
  3110                           ;incstack = 0
  3111                           ; Regs used in _I2C_Master_Write: [wreg+status,2+status,0+pclath+cstack]
  3112                           ;I2C_Master_Write@d stored from wreg
  3113  04CD  00F3               	movwf	I2C_Master_Write@d
  3114                           
  3115                           ;i2c.c: 46: I2C_Master_Wait();
  3116  04CE  3185  254F         	fcall	_I2C_Master_Wait
  3117                           
  3118                           ;i2c.c: 47: SSPBUF = d;
  3119  04D0  0873               	movf	I2C_Master_Write@d,w
  3120  04D1  0024               	movlb	4	; select bank4
  3121  04D2  0091               	movwf	17	;volatile
  3122  04D3  0008               	return
  3123  04D4                     __end_of_I2C_Master_Write:	
  3124                           
  3125                           	psect	text13
  3126  04C3                     __ptext13:	
  3127 ;; *************** function _I2C_Master_Stop *****************
  3128 ;; Defined at:
  3129 ;;		line 40 in file "i2c.c"
  3130 ;; Parameters:    Size  Location     Type
  3131 ;;		None
  3132 ;; Auto vars:     Size  Location     Type
  3133 ;;		None
  3134 ;; Return value:  Size  Location     Type
  3135 ;;                  1    wreg      void 
  3136 ;; Registers used:
  3137 ;;		wreg, status,2, status,0, pclath, cstack
  3138 ;; Tracked objects:
  3139 ;;		On entry : 0/0
  3140 ;;		On exit  : 0/0
  3141 ;;		Unchanged: 0/0
  3142 ;; Data sizes:     COMMON   BANK0   BANK1   BANK2   BANK3   BANK4   BANK5   BANK6   BANK7   BANK8   BANK9  BANK10  BANK1
      +1  BANK12
  3143 ;;      Params:         0       0       0       0       0       0       0       0       0       0       0       0       
      +0       0
  3144 ;;      Locals:         0       0       0       0       0       0       0       0       0       0       0       0       
      +0       0
  3145 ;;      Temps:          0       0       0       0       0       0       0       0       0       0       0       0       
      +0       0
  3146 ;;      Totals:         0       0       0       0       0       0       0       0       0       0       0       0       
      +0       0
  3147 ;;Total ram usage:        0 bytes
  3148 ;; Hardware stack levels used:    1
  3149 ;; Hardware stack levels required when called:    2
  3150 ;; This function calls:
  3151 ;;		_I2C_Master_Wait
  3152 ;; This function is called by:
  3153 ;;		_regWrite
  3154 ;;		_MPU6050_Init
  3155 ;;		_MPU6050_Read
  3156 ;;		_regRead
  3157 ;; This function uses a non-reentrant model
  3158 ;;
  3159                           
  3160                           
  3161                           ;psect for function _I2C_Master_Stop
  3162  04C3                     _I2C_Master_Stop:	
  3163                           
  3164                           ;i2c.c: 41: I2C_Master_Wait();
  3165                           
  3166                           ;incstack = 0
  3167                           ; Regs used in _I2C_Master_Stop: [wreg+status,2+status,0+pclath+cstack]
  3168  04C3  3185  254F         	fcall	_I2C_Master_Wait
  3169                           
  3170                           ;i2c.c: 42: PEN = 1;
  3171  04C5  0024               	movlb	4	; select bank4
  3172  04C6  1516               	bsf	22,2	;volatile
  3173  04C7  0008               	return
  3174  04C8                     __end_of_I2C_Master_Stop:	
  3175                           
  3176                           	psect	text14
  3177  04BE                     __ptext14:	
  3178 ;; *************** function _I2C_Master_Restart *****************
  3179 ;; Defined at:
  3180 ;;		line 35 in file "i2c.c"
  3181 ;; Parameters:    Size  Location     Type
  3182 ;;		None
  3183 ;; Auto vars:     Size  Location     Type
  3184 ;;		None
  3185 ;; Return value:  Size  Location     Type
  3186 ;;                  1    wreg      void 
  3187 ;; Registers used:
  3188 ;;		wreg, status,2, status,0, pclath, cstack
  3189 ;; Tracked objects:
  3190 ;;		On entry : 0/0
  3191 ;;		On exit  : 0/0
  3192 ;;		Unchanged: 0/0
  3193 ;; Data sizes:     COMMON   BANK0   BANK1   BANK2   BANK3   BANK4   BANK5   BANK6   BANK7   BANK8   BANK9  BANK10  BANK1
      +1  BANK12
  3194 ;;      Params:         0       0       0       0       0       0       0       0       0       0       0       0       
      +0       0
  3195 ;;      Locals:         0       0       0       0       0       0       0       0       0       0       0       0       
      +0       0
  3196 ;;      Temps:          0       0       0       0       0       0       0       0       0       0       0       0       
      +0       0
  3197 ;;      Totals:         0       0       0       0       0       0       0       0       0       0       0       0       
      +0       0
  3198 ;;Total ram usage:        0 bytes
  3199 ;; Hardware stack levels used:    1
  3200 ;; Hardware stack levels required when called:    2
  3201 ;; This function calls:
  3202 ;;		_I2C_Master_Wait
  3203 ;; This function is called by:
  3204 ;;		_regWrite
  3205 ;;		_regRead
  3206 ;; This function uses a non-reentrant model
  3207 ;;
  3208                           
  3209                           
  3210                           ;psect for function _I2C_Master_Restart
  3211  04BE                     _I2C_Master_Restart:	
  3212                           
  3213                           ;i2c.c: 36: I2C_Master_Wait();
  3214                           
  3215                           ;incstack = 0
  3216                           ; Regs used in _I2C_Master_Restart: [wreg+status,2+status,0+pclath+cstack]
  3217  04BE  3185  254F         	fcall	_I2C_Master_Wait
  3218                           
  3219                           ;i2c.c: 37: RSEN = 1;
  3220  04C0  0024               	movlb	4	; select bank4
  3221  04C1  1496               	bsf	22,1	;volatile
  3222  04C2  0008               	return
  3223  04C3                     __end_of_I2C_Master_Restart:	
  3224                           
  3225                           	psect	text15
  3226  054F                     __ptext15:	
  3227 ;; *************** function _I2C_Master_Wait *****************
  3228 ;; Defined at:
  3229 ;;		line 21 in file "i2c.c"
  3230 ;; Parameters:    Size  Location     Type
  3231 ;;		None
  3232 ;; Auto vars:     Size  Location     Type
  3233 ;;		None
  3234 ;; Return value:  Size  Location     Type
  3235 ;;                  1    wreg      void 
  3236 ;; Registers used:
  3237 ;;		wreg, status,2, status,0, pclath, cstack
  3238 ;; Tracked objects:
  3239 ;;		On entry : 0/0
  3240 ;;		On exit  : 0/0
  3241 ;;		Unchanged: 0/0
  3242 ;; Data sizes:     COMMON   BANK0   BANK1   BANK2   BANK3   BANK4   BANK5   BANK6   BANK7   BANK8   BANK9  BANK10  BANK1
      +1  BANK12
  3243 ;;      Params:         0       0       0       0       0       0       0       0       0       0       0       0       
      +0       0
  3244 ;;      Locals:         0       0       0       0       0       0       0       0       0       0       0       0       
      +0       0
  3245 ;;      Temps:          2       0       0       0       0       0       0       0       0       0       0       0       
      +0       0
  3246 ;;      Totals:         2       0       0       0       0       0       0       0       0       0       0       0       
      +0       0
  3247 ;;Total ram usage:        2 bytes
  3248 ;; Hardware stack levels used:    1
  3249 ;; Hardware stack levels required when called:    1
  3250 ;; This function calls:
  3251 ;;		_UART_send_char
  3252 ;; This function is called by:
  3253 ;;		_I2C_Master_Start
  3254 ;;		_I2C_Master_Restart
  3255 ;;		_I2C_Master_Stop
  3256 ;;		_I2C_Master_Write
  3257 ;;		_I2C_Master_Read
  3258 ;; This function uses a non-reentrant model
  3259 ;;
  3260                           
  3261                           
  3262                           ;psect for function _I2C_Master_Wait
  3263  054F                     _I2C_Master_Wait:	
  3264  054F                     l980:	
  3265                           ;i2c.c: 22: while((SSPSTAT & 0x04) || (SSPCON2 & 0x1F))
  3266                           
  3267                           ;incstack = 0
  3268                           ; Regs used in _I2C_Master_Wait: [wreg+status,2+status,0+pclath+cstack]
  3269                           
  3270  054F  0024               	movlb	4	; select bank4
  3271  0550  1D14               	btfss	20,2	;volatile
  3272  0551  2D67               	goto	l982
  3273  0552                     l976:	
  3274                           
  3275                           ;i2c.c: 23: {
  3276                           ;i2c.c: 24: UART_send_char('w');
  3277  0552  3077               	movlw	119
  3278  0553  3184  24D4  3185   	fcall	_UART_send_char
  3279                           
  3280                           ;i2c.c: 25: UART_send_char('\n');
  3281  0556  300A               	movlw	10
  3282  0557  3184  24D4  3185   	fcall	_UART_send_char
  3283                           
  3284                           ;i2c.c: 26: _delay((unsigned long)((1000)*(16000000L/4000.0)));
  3285  055A  3015               	movlw	21
  3286  055B  00F2               	movwf	??_I2C_Master_Wait+1
  3287  055C  304B               	movlw	75
  3288  055D  00F1               	movwf	??_I2C_Master_Wait
  3289  055E  30BE               	movlw	190
  3290  055F                     u557:	
  3291  055F  0B89               	decfsz	9,f
  3292  0560  2D5F               	goto	u557
  3293  0561  0BF1               	decfsz	??_I2C_Master_Wait,f
  3294  0562  2D5F               	goto	u557
  3295  0563  0BF2               	decfsz	??_I2C_Master_Wait+1,f
  3296  0564  2D5F               	goto	u557
  3297  0565  3200               	nop2
  3298  0566  2D4F               	goto	l980
  3299  0567                     l982:	
  3300  0567  0816               	movf	22,w	;volatile
  3301  0568  391F               	andlw	31
  3302  0569  1903               	btfsc	3,2
  3303  056A  0008               	return
  3304  056B  2D52               	goto	l976
  3305  056C                     __end_of_I2C_Master_Wait:	
  3306                           
  3307                           	psect	text16
  3308  04D4                     __ptext16:	
  3309 ;; *************** function _UART_send_char *****************
  3310 ;; Defined at:
  3311 ;;		line 39 in file "uart.c"
  3312 ;; Parameters:    Size  Location     Type
  3313 ;;  bt              1    wreg     unsigned char 
  3314 ;; Auto vars:     Size  Location     Type
  3315 ;;  bt              1    0[COMMON] unsigned char 
  3316 ;; Return value:  Size  Location     Type
  3317 ;;                  1    wreg      void 
  3318 ;; Registers used:
  3319 ;;		wreg
  3320 ;; Tracked objects:
  3321 ;;		On entry : 0/0
  3322 ;;		On exit  : 0/0
  3323 ;;		Unchanged: 0/0
  3324 ;; Data sizes:     COMMON   BANK0   BANK1   BANK2   BANK3   BANK4   BANK5   BANK6   BANK7   BANK8   BANK9  BANK10  BANK1
      +1  BANK12
  3325 ;;      Params:         0       0       0       0       0       0       0       0       0       0       0       0       
      +0       0
  3326 ;;      Locals:         1       0       0       0       0       0       0       0       0       0       0       0       
      +0       0
  3327 ;;      Temps:          0       0       0       0       0       0       0       0       0       0       0       0       
      +0       0
  3328 ;;      Totals:         1       0       0       0       0       0       0       0       0       0       0       0       
      +0       0
  3329 ;;Total ram usage:        1 bytes
  3330 ;; Hardware stack levels used:    1
  3331 ;; This function calls:
  3332 ;;		Nothing
  3333 ;; This function is called by:
  3334 ;;		_main
  3335 ;;		_I2C_Master_Wait
  3336 ;;		_UART_send_string
  3337 ;;		_captureImage
  3338 ;; This function uses a non-reentrant model
  3339 ;;
  3340                           
  3341                           
  3342                           ;psect for function _UART_send_char
  3343  04D4                     _UART_send_char:	
  3344                           
  3345                           ;incstack = 0
  3346                           ; Regs used in _UART_send_char: [wreg]
  3347                           ;UART_send_char@bt stored from wreg
  3348  04D4  00F0               	movwf	UART_send_char@bt
  3349  04D5                     l237:	
  3350                           ;uart.c: 41: while(!TXIF);
  3351                           
  3352  04D5  0020               	movlb	0	; select bank0
  3353  04D6  1E11               	btfss	17,4	;volatile
  3354  04D7  2CD5               	goto	l237
  3355                           
  3356                           ;uart.c: 42: TXREG = bt;
  3357  04D8  0870               	movf	UART_send_char@bt,w
  3358  04D9  0023               	movlb	3	; select bank3
  3359  04DA  009A               	movwf	26	;volatile
  3360  04DB  0008               	return
  3361  04DC                     __end_of_UART_send_char:	
  3362                           
  3363                           	psect	text17
  3364  04E5                     __ptext17:	
  3365 ;; *************** function _I2C_Master_Init *****************
  3366 ;; Defined at:
  3367 ;;		line 12 in file "i2c.c"
  3368 ;; Parameters:    Size  Location     Type
  3369 ;;		None
  3370 ;; Auto vars:     Size  Location     Type
  3371 ;;		None
  3372 ;; Return value:  Size  Location     Type
  3373 ;;                  1    wreg      void 
  3374 ;; Registers used:
  3375 ;;		wreg
  3376 ;; Tracked objects:
  3377 ;;		On entry : 0/0
  3378 ;;		On exit  : 0/0
  3379 ;;		Unchanged: 0/0
  3380 ;; Data sizes:     COMMON   BANK0   BANK1   BANK2   BANK3   BANK4   BANK5   BANK6   BANK7   BANK8   BANK9  BANK10  BANK1
      +1  BANK12
  3381 ;;      Params:         0       0       0       0       0       0       0       0       0       0       0       0       
      +0       0
  3382 ;;      Locals:         0       0       0       0       0       0       0       0       0       0       0       0       
      +0       0
  3383 ;;      Temps:          0       0       0       0       0       0       0       0       0       0       0       0       
      +0       0
  3384 ;;      Totals:         0       0       0       0       0       0       0       0       0       0       0       0       
      +0       0
  3385 ;;Total ram usage:        0 bytes
  3386 ;; Hardware stack levels used:    1
  3387 ;; This function calls:
  3388 ;;		Nothing
  3389 ;; This function is called by:
  3390 ;;		_main
  3391 ;; This function uses a non-reentrant model
  3392 ;;
  3393                           
  3394                           
  3395                           ;psect for function _I2C_Master_Init
  3396  04E5                     _I2C_Master_Init:	
  3397                           
  3398                           ;i2c.c: 13: SSPCON1 = 0x28;
  3399                           
  3400                           ;incstack = 0
  3401                           ; Regs used in _I2C_Master_Init: [wreg]
  3402  04E5  3028               	movlw	40
  3403  04E6  0024               	movlb	4	; select bank4
  3404  04E7  0095               	movwf	21	;volatile
  3405                           
  3406                           ;i2c.c: 14: SSPCON2 = 0x20;
  3407  04E8  3020               	movlw	32
  3408  04E9  0096               	movwf	22	;volatile
  3409                           
  3410                           ;i2c.c: 15: SSPADD = 16000000L/(4*400000L) - 1;
  3411  04EA  3009               	movlw	9
  3412  04EB  0092               	movwf	18	;volatile
  3413                           
  3414                           ;i2c.c: 16: TRISC3 = 1;
  3415  04EC  0021               	movlb	1	; select bank1
  3416  04ED  158E               	bsf	14,3	;volatile
  3417                           
  3418                           ;i2c.c: 17: TRISC4 = 1;
  3419  04EE  160E               	bsf	14,4	;volatile
  3420  04EF  0008               	return
  3421  04F0                     __end_of_I2C_Master_Init:	
  3422                           
  3423                           	psect	text18
  3424  04FE                     __ptext18:	
  3425 ;; *************** function _ADC_Read *****************
  3426 ;; Defined at:
  3427 ;;		line 14 in file "adc.c"
  3428 ;; Parameters:    Size  Location     Type
  3429 ;;		None
  3430 ;; Auto vars:     Size  Location     Type
  3431 ;;		None
  3432 ;; Return value:  Size  Location     Type
  3433 ;;                  2    0[COMMON] int 
  3434 ;; Registers used:
  3435 ;;		wreg
  3436 ;; Tracked objects:
  3437 ;;		On entry : 0/0
  3438 ;;		On exit  : 0/0
  3439 ;;		Unchanged: 0/0
  3440 ;; Data sizes:     COMMON   BANK0   BANK1   BANK2   BANK3   BANK4   BANK5   BANK6   BANK7   BANK8   BANK9  BANK10  BANK1
      +1  BANK12
  3441 ;;      Params:         2       0       0       0       0       0       0       0       0       0       0       0       
      +0       0
  3442 ;;      Locals:         0       0       0       0       0       0       0       0       0       0       0       0       
      +0       0
  3443 ;;      Temps:          1       0       0       0       0       0       0       0       0       0       0       0       
      +0       0
  3444 ;;      Totals:         3       0       0       0       0       0       0       0       0       0       0       0       
      +0       0
  3445 ;;Total ram usage:        3 bytes
  3446 ;; Hardware stack levels used:    1
  3447 ;; This function calls:
  3448 ;;		Nothing
  3449 ;; This function is called by:
  3450 ;;		_main
  3451 ;; This function uses a non-reentrant model
  3452 ;;
  3453                           
  3454                           
  3455                           ;psect for function _ADC_Read
  3456  04FE                     _ADC_Read:	
  3457                           
  3458                           ;adc.c: 16: ADCON0 |= 0x4;
  3459                           
  3460                           ;incstack = 0
  3461                           ; Regs used in _ADC_Read: [wreg]
  3462  04FE  0021               	movlb	1	; select bank1
  3463  04FF  151D               	bsf	29,2	;volatile
  3464                           
  3465                           ;adc.c: 17: _delay((unsigned long)((2)*(16000000/4000.0)));
  3466  0500  300B               	movlw	11
  3467  0501  00F2               	movwf	??_ADC_Read
  3468  0502  3062               	movlw	98
  3469  0503                     u567:	
  3470  0503  0B89               	decfsz	9,f
  3471  0504  2D03               	goto	u567
  3472  0505  0BF2               	decfsz	??_ADC_Read,f
  3473  0506  2D03               	goto	u567
  3474  0507  3200               	nop2
  3475                           
  3476                           ;adc.c: 18: GO_nDONE = 1;
  3477  0508  0021               	movlb	1	; select bank1
  3478  0509  149D               	bsf	29,1	;volatile
  3479  050A                     l275:	
  3480                           ;adc.c: 19: while(GO_nDONE);
  3481                           
  3482  050A  189D               	btfsc	29,1	;volatile
  3483  050B  2D0A               	goto	l275
  3484                           
  3485                           ;adc.c: 20: return ((ADRESH<<8)+ADRESL);
  3486  050C  081C               	movf	28,w	;volatile
  3487  050D  00F1               	movwf	?_ADC_Read+1
  3488  050E  081B               	movf	27,w	;volatile
  3489  050F  00F0               	movwf	?_ADC_Read
  3490  0510  0008               	return
  3491  0511                     __end_of_ADC_Read:	
  3492                           
  3493                           	psect	text19
  3494  04DC                     __ptext19:	
  3495 ;; *************** function _ADC_Init *****************
  3496 ;; Defined at:
  3497 ;;		line 5 in file "adc.c"
  3498 ;; Parameters:    Size  Location     Type
  3499 ;;		None
  3500 ;; Auto vars:     Size  Location     Type
  3501 ;;		None
  3502 ;; Return value:  Size  Location     Type
  3503 ;;                  1    wreg      void 
  3504 ;; Registers used:
  3505 ;;		wreg, status,2
  3506 ;; Tracked objects:
  3507 ;;		On entry : 0/0
  3508 ;;		On exit  : 0/0
  3509 ;;		Unchanged: 0/0
  3510 ;; Data sizes:     COMMON   BANK0   BANK1   BANK2   BANK3   BANK4   BANK5   BANK6   BANK7   BANK8   BANK9  BANK10  BANK1
      +1  BANK12
  3511 ;;      Params:         0       0       0       0       0       0       0       0       0       0       0       0       
      +0       0
  3512 ;;      Locals:         0       0       0       0       0       0       0       0       0       0       0       0       
      +0       0
  3513 ;;      Temps:          0       0       0       0       0       0       0       0       0       0       0       0       
      +0       0
  3514 ;;      Totals:         0       0       0       0       0       0       0       0       0       0       0       0       
      +0       0
  3515 ;;Total ram usage:        0 bytes
  3516 ;; Hardware stack levels used:    1
  3517 ;; This function calls:
  3518 ;;		Nothing
  3519 ;; This function is called by:
  3520 ;;		_main
  3521 ;; This function uses a non-reentrant model
  3522 ;;
  3523                           
  3524                           
  3525                           ;psect for function _ADC_Init
  3526  04DC                     _ADC_Init:	
  3527                           
  3528                           ;adc.c: 7: TRISA1 = 1;
  3529                           
  3530                           ;incstack = 0
  3531                           ; Regs used in _ADC_Init: [wreg+status,2]
  3532  04DC  0021               	movlb	1	; select bank1
  3533  04DD  148C               	bsf	12,1	;volatile
  3534                           
  3535                           ;adc.c: 8: ANSELAbits.ANSA1 = 0;
  3536  04DE  0023               	movlb	3	; select bank3
  3537  04DF  108C               	bcf	12,1	;volatile
  3538                           
  3539                           ;adc.c: 9: ADCON0 = 0x5;
  3540  04E0  3005               	movlw	5
  3541  04E1  0021               	movlb	1	; select bank1
  3542  04E2  009D               	movwf	29	;volatile
  3543                           
  3544                           ;adc.c: 11: ADCON1 = 0x00;
  3545  04E3  019E               	clrf	30	;volatile
  3546  04E4  0008               	return
  3547  04E5                     __end_of_ADC_Init:	
  3548  007E                     btemp	set	126	;btemp
  3549  007E                     wtemp0	set	126


Data Sizes:
    Strings     17
    Constant    720
    Data        0
    BSS         0
    Persistent  0
    Stack       0

Auto Spaces:
    Space          Size  Autos    Used
    COMMON           14     14      14
    BANK0            80     17      17
    BANK1            80      0       0
    BANK2            80      0       0
    BANK3            80      0       0
    BANK4            80      0       0
    BANK5            80      0       0
    BANK6            80      0       0
    BANK7            80      0       0
    BANK8            80      0       0
    BANK9            80      0       0
    BANK10           80      0       0
    BANK11           80      0       0
    BANK12           48      0       0

Pointer List with Targets:

    UART_send_string@st_pt	PTR unsigned char  size(2) Largest target is 12
		 -> STR_2(CODE[5]), STR_1(CODE[12]), 


Critical Paths under _main in COMMON

    _main->_MPU6050_Read
    _camInit->_regWrite
    _UART_send_string->_UART_send_char
    _MPU6050_Read->___awdiv
    _I2C_Master_Read->_I2C_Master_Wait
    _MPU6050_Init->_I2C_Master_Write
    _I2C_Master_Start->_I2C_Master_Wait
    _Init_QVGA->_regWrite
    _Init_OV7670->_regWrite
    _regWrite->_I2C_Master_Write
    _I2C_Master_Write->_I2C_Master_Wait
    _I2C_Master_Stop->_I2C_Master_Wait
    _I2C_Master_Restart->_I2C_Master_Wait
    _I2C_Master_Wait->_UART_send_char

Critical Paths under _main in BANK0

    _main->_MPU6050_Read

Critical Paths under _main in BANK1

    None.

Critical Paths under _main in BANK2

    None.

Critical Paths under _main in BANK3

    None.

Critical Paths under _main in BANK4

    None.

Critical Paths under _main in BANK5

    None.

Critical Paths under _main in BANK6

    None.

Critical Paths under _main in BANK7

    None.

Critical Paths under _main in BANK8

    None.

Critical Paths under _main in BANK9

    None.

Critical Paths under _main in BANK10

    None.

Critical Paths under _main in BANK11

    None.

Critical Paths under _main in BANK12

    None.

Call Graph Tables:

 ---------------------------------------------------------------------------------
 (Depth) Function   	        Calls       Base Space   Used Autos Params    Refs
 ---------------------------------------------------------------------------------
 (0) _main                                                 3     3      0    5932
                                             14 BANK0      3     3      0
                           _ADC_Init
                           _ADC_Read
                    _I2C_Master_Init
                        _Init_OV7670
                          _Init_QVGA
                    _Initialize_UART
                       _MPU6050_Init
                       _MPU6050_Read
                     _UART_send_char
                   _UART_send_string
                            _camInit
 ---------------------------------------------------------------------------------
 (1) _camInit                                              2     2      0    1616
                                              6 COMMON     2     2      0
                           _regWrite
 ---------------------------------------------------------------------------------
 (1) _UART_send_string                                     3     1      2     173
                                              1 COMMON     3     1      2
                     _UART_send_char
 ---------------------------------------------------------------------------------
 (1) _MPU6050_Read                                        19    17      2     778
                                              9 COMMON     5     3      2
                                              0 BANK0     14    14      0
                    _I2C_Master_Read
                   _I2C_Master_Start
                    _I2C_Master_Stop
                   _I2C_Master_Write
                            ___awdiv
 ---------------------------------------------------------------------------------
 (2) ___awdiv                                              9     5      4     406
                                              0 COMMON     9     5      4
 ---------------------------------------------------------------------------------
 (2) _I2C_Master_Read                                      5     3      2      45
                                              3 COMMON     5     3      2
                    _I2C_Master_Wait
 ---------------------------------------------------------------------------------
 (1) _MPU6050_Init                                         0     0      0      88
                   _I2C_Master_Start
                    _I2C_Master_Stop
                   _I2C_Master_Write
 ---------------------------------------------------------------------------------
 (2) _I2C_Master_Start                                     0     0      0      22
                    _I2C_Master_Wait
 ---------------------------------------------------------------------------------
 (1) _Initialize_UART                                      0     0      0       0
 ---------------------------------------------------------------------------------
 (1) _Init_QVGA                                            1     1      0    1616
                                              6 COMMON     1     1      0
                           _regWrite
 ---------------------------------------------------------------------------------
 (1) _Init_OV7670                                          2     2      0    1616
                                              6 COMMON     2     2      0
                           _regWrite
 ---------------------------------------------------------------------------------
 (2) _regWrite                                             2     1      1    1616
                                              4 COMMON     2     1      1
                 _I2C_Master_Restart
                    _I2C_Master_Stop
                   _I2C_Master_Write
 ---------------------------------------------------------------------------------
 (3) _I2C_Master_Write                                     1     1      0      44
                                              3 COMMON     1     1      0
                    _I2C_Master_Wait
 ---------------------------------------------------------------------------------
 (3) _I2C_Master_Stop                                      0     0      0      22
                    _I2C_Master_Wait
 ---------------------------------------------------------------------------------
 (3) _I2C_Master_Restart                                   0     0      0      22
                    _I2C_Master_Wait
 ---------------------------------------------------------------------------------
 (4) _I2C_Master_Wait                                      2     2      0      22
                                              1 COMMON     2     2      0
                     _UART_send_char
 ---------------------------------------------------------------------------------
 (5) _UART_send_char                                       1     1      0      22
                                              0 COMMON     1     1      0
 ---------------------------------------------------------------------------------
 (1) _I2C_Master_Init                                      0     0      0       0
 ---------------------------------------------------------------------------------
 (1) _ADC_Read                                             3     1      2       0
                                              0 COMMON     3     1      2
 ---------------------------------------------------------------------------------
 (1) _ADC_Init                                             0     0      0       0
 ---------------------------------------------------------------------------------
 Estimated maximum stack depth 5
 ---------------------------------------------------------------------------------

 Call Graph Graphs:

 _main (ROOT)
   _ADC_Init
   _ADC_Read
   _I2C_Master_Init
   _Init_OV7670
     _regWrite
       _I2C_Master_Restart
         _I2C_Master_Wait
           _UART_send_char
       _I2C_Master_Stop
         _I2C_Master_Wait
           _UART_send_char
       _I2C_Master_Write
         _I2C_Master_Wait
           _UART_send_char
   _Init_QVGA
     _regWrite
       _I2C_Master_Restart
         _I2C_Master_Wait
           _UART_send_char
       _I2C_Master_Stop
         _I2C_Master_Wait
           _UART_send_char
       _I2C_Master_Write
         _I2C_Master_Wait
           _UART_send_char
   _Initialize_UART
   _MPU6050_Init
     _I2C_Master_Start
       _I2C_Master_Wait
         _UART_send_char
     _I2C_Master_Stop
       _I2C_Master_Wait
         _UART_send_char
     _I2C_Master_Write
       _I2C_Master_Wait
         _UART_send_char
   _MPU6050_Read
     _I2C_Master_Read
       _I2C_Master_Wait
         _UART_send_char
     _I2C_Master_Start
       _I2C_Master_Wait
         _UART_send_char
     _I2C_Master_Stop
       _I2C_Master_Wait
         _UART_send_char
     _I2C_Master_Write
       _I2C_Master_Wait
         _UART_send_char
     ___awdiv
   _UART_send_char
   _UART_send_string
     _UART_send_char
   _camInit
     _regWrite
       _I2C_Master_Restart
         _I2C_Master_Wait
           _UART_send_char
       _I2C_Master_Stop
         _I2C_Master_Wait
           _UART_send_char
       _I2C_Master_Write
         _I2C_Master_Wait
           _UART_send_char

 Address spaces:
Name               Size   Autos  Total    Cost      Usage
BIGRAM             3F0      0       0       0        0.0%
NULL                 0      0       0       0        0.0%
CODE                 0      0       0       0        0.0%
BITCOMMON            E      0       0       1        0.0%
BITSFR0              0      0       0       1        0.0%
SFR0                 0      0       0       1        0.0%
COMMON               E      E       E       2      100.0%
BITSFR1              0      0       0       2        0.0%
SFR1                 0      0       0       2        0.0%
BITSFR2              0      0       0       3        0.0%
SFR2                 0      0       0       3        0.0%
STACK                0      0       0       3        0.0%
BITBANK0            50      0       0       4        0.0%
BITSFR3              0      0       0       4        0.0%
SFR3                 0      0       0       4        0.0%
BANK0               50     11      11       5       21.3%
BITSFR4              0      0       0       5        0.0%
SFR4                 0      0       0       5        0.0%
BITBANK1            50      0       0       6        0.0%
BITSFR5              0      0       0       6        0.0%
SFR5                 0      0       0       6        0.0%
BANK1               50      0       0       7        0.0%
BITSFR6              0      0       0       7        0.0%
SFR6                 0      0       0       7        0.0%
BITBANK2            50      0       0       8        0.0%
BITSFR7              0      0       0       8        0.0%
SFR7                 0      0       0       8        0.0%
BANK2               50      0       0       9        0.0%
BITSFR8              0      0       0       9        0.0%
SFR8                 0      0       0       9        0.0%
BITBANK3            50      0       0      10        0.0%
BITSFR9              0      0       0      10        0.0%
SFR9                 0      0       0      10        0.0%
BANK3               50      0       0      11        0.0%
BITSFR10             0      0       0      11        0.0%
SFR10                0      0       0      11        0.0%
BITBANK4            50      0       0      12        0.0%
BITSFR11             0      0       0      12        0.0%
SFR11                0      0       0      12        0.0%
BANK4               50      0       0      13        0.0%
BITSFR12             0      0       0      13        0.0%
SFR12                0      0       0      13        0.0%
BITBANK5            50      0       0      14        0.0%
BITSFR13             0      0       0      14        0.0%
SFR13                0      0       0      14        0.0%
BANK5               50      0       0      15        0.0%
BITSFR14             0      0       0      15        0.0%
SFR14                0      0       0      15        0.0%
BITBANK6            50      0       0      16        0.0%
BITSFR15             0      0       0      16        0.0%
SFR15                0      0       0      16        0.0%
BANK6               50      0       0      17        0.0%
BITSFR16             0      0       0      17        0.0%
SFR16                0      0       0      17        0.0%
BITBANK7            50      0       0      18        0.0%
BITSFR17             0      0       0      18        0.0%
SFR17                0      0       0      18        0.0%
BANK7               50      0       0      19        0.0%
BITSFR18             0      0       0      19        0.0%
SFR18                0      0       0      19        0.0%
BITSFR19             0      0       0      20        0.0%
SFR19                0      0       0      20        0.0%
ABS                  0      0       0      20        0.0%
BITBANK8            50      0       0      21        0.0%
BITSFR20             0      0       0      21        0.0%
SFR20                0      0       0      21        0.0%
BANK8               50      0       0      22        0.0%
BITSFR21             0      0       0      22        0.0%
SFR21                0      0       0      22        0.0%
BITBANK9            50      0       0      23        0.0%
BITSFR22             0      0       0      23        0.0%
SFR22                0      0       0      23        0.0%
BANK9               50      0       0      24        0.0%
BITSFR23             0      0       0      24        0.0%
SFR23                0      0       0      24        0.0%
BITBANK10           50      0       0      25        0.0%
BITSFR24             0      0       0      25        0.0%
SFR24                0      0       0      25        0.0%
BANK10              50      0       0      26        0.0%
BITSFR25             0      0       0      26        0.0%
SFR25                0      0       0      26        0.0%
BITBANK11           50      0       0      27        0.0%
BITSFR26             0      0       0      27        0.0%
SFR26                0      0       0      27        0.0%
BANK11              50      0       0      28        0.0%
BITSFR27             0      0       0      28        0.0%
SFR27                0      0       0      28        0.0%
BITBANK12           30      0       0      29        0.0%
BITSFR28             0      0       0      29        0.0%
SFR28                0      0       0      29        0.0%
BANK12              30      0       0      30        0.0%
BITSFR29             0      0       0      30        0.0%
SFR29                0      0       0      30        0.0%
BITSFR30             0      0       0      31        0.0%
SFR30                0      0       0      31        0.0%
DATA                 0      0       0      31        0.0%
BITSFR31             0      0       0      32        0.0%
SFR31                0      0       0      32        0.0%


Microchip Technology PIC Macro Assembler V1.45 build -152302408 
Symbol Table                                                                                   Wed Apr 11 16:09:00 2018

               ___awdiv@sign 0076  __size_of_I2C_Master_Restart 0005                          l237 04D5  
                        l275 050A                          l980 054F                          l982 0567  
                        l976 0552                          _PEN 10B2                          u355 062E  
                        u517 06B5                          u375 0638                          u527 0571  
                        u385 0642                          u537 0585                          u547 06CA  
                        u395 064A                          _SEN 10B0                          u557 055F  
                        u567 0503                          _RX9 0CEE                          _TX9 0CF6  
         MPU6050_Read@Sensor 0020                          wreg 0009                         l1022 0618  
                       l1040 0637                         l1050 0652                         l1202 069D  
                       l1028 0623                         l1054 065A                         l1046 0649  
                       l1038 062B                         l1148 0524                         l1192 0688  
                       STR_1 0AD0                         STR_2 0ADC                         _BRGH 0CF2  
                       _CREN 0CEC                         _LATB 010D                         _RCEN 10B3  
                       _RCIF 008D                         _OERR 0CE9                         _SPEN 0CEF  
                       _RSEN 10B1                         _TXEN 0CF5                         _TXIF 008C  
                       _SYNC 0CF4                ??_Init_OV7670 0076                         _main 065F  
                       fsr0h 0005                         indf0 0000                         fsr0l 0004  
                       btemp 007E             __end_of_ADC_Init 04E5             __end_of_ADC_Read 0511  
                       start 0002    __size_of_UART_send_string 0014             ?_I2C_Master_Init 0070  
           ?_I2C_Master_Read 0073             ?_I2C_Master_Wait 0070             ?_I2C_Master_Stop 0070  
                      ?_main 0070              __end_of___awdiv 065F              ___awdiv@divisor 0070  
            __end_of_camInit 0592              ___awdiv@counter 0075                        _RCREG 0199  
                      _SPBRG 019B                        _TRISB 008D                        _TRISC 008E  
                      _TXREG 019A                ?_MPU6050_Init 0070                ?_MPU6050_Read 0079  
                      main@t 0030                        status 0003                        wtemp0 007E  
            __initialization 07FD          __end_of_Init_OV7670 0743                 __end_of_main 06BD  
                     ??_main 002E            ?_I2C_Master_Start 0070            ?_I2C_Master_Write 0070  
             ??_MPU6050_Init 0074               ??_MPU6050_Read 007B           ??_I2C_Master_Start 0073  
                     _ADCON0 009D                       _ADCON1 009E           ??_I2C_Master_Write 0073  
                     _ADRESH 009C                       _ADRESL 009B             ___awdiv@dividend 0072  
                     _ANSELA 018C                       _ANSELC 018E           __size_of_Init_QVGA 0050  
                     _SSPADD 0212                       _TRISA0 0460                       _TRISA1 0461  
                     _TRISA6 0466                       _TRISC3 0473                       _TRISC4 0474  
                     _TRISC6 0476                       _TRISC7 0477                       _SSPBUF 0211  
                  ??___awdiv 0074                    ??_camInit 0076             ___awdiv@quotient 0077  
           __end_of_regWrite 0524                    ?_ADC_Init 0070                    ?_ADC_Read 0070  
    __end_of__initialization 07FD                  _Init_OV7670 06BD               __pcstackCOMMON 0070  
                regWrite@reg 0075             _UART_send_string 0524     __size_of_Initialize_UART 000E  
          __end_of_Init_QVGA 060E                   ??_ADC_Init 0070                   ??_ADC_Read 0072  
                 __pmaintext 065F         __end_of_MPU6050_Init 05BE         __end_of_MPU6050_Read 07FD  
 __end_of_I2C_Master_Restart 04C3      __size_of_UART_send_char 0008                      _SSPCON1 0215  
                    _SSPCON2 0216                      _SSPSTAT 0214                    ?_regWrite 0074  
                    ___awdiv 060E                      _camInit 056C                      __ptext1 056C  
                    __ptext2 0524                      __ptext3 0743                      __ptext4 060E  
                    __ptext5 0538                      __ptext6 0592                      __ptext7 04C8  
                    __ptext8 04F0                      __ptext9 05BE            ??_Initialize_UART 0070  
   __size_of_I2C_Master_Init 000B     __size_of_I2C_Master_Read 0017     __size_of_I2C_Master_Wait 001D  
   __size_of_I2C_Master_Stop 0005         end_of_initialization 07FD                   ??_regWrite 0075  
  __size_of_I2C_Master_Start 0005    __size_of_I2C_Master_Write 0007             __CFG_CLKOUTEN$ON 0000  
                  _PORTAbits 000C                    _PORTCbits 000E             __CFG_FOSC$INTOSC 0000  
          __size_of_ADC_Init 0009            __size_of_ADC_Read 0013        __end_of_yuv422_ov7670 0AA8  
   __end_of_UART_send_string 0538                 ?_Init_OV7670 0070        __size_of_MPU6050_Init 002C  
      __size_of_MPU6050_Read 00BA                 regWrite@data 0074          _ov7670_default_regs 0800  
        start_initialization 07FD                    _Init_QVGA 05BE               _UART_send_char 04D4  
               _MPU6050_Init 0592                 _MPU6050_Read 0743            ??_I2C_Master_Init 0070  
          ??_I2C_Master_Read 0075            ??_I2C_Master_Wait 0071            ??_I2C_Master_Stop 0073  
     __end_of_UART_send_char 04DC                    ___latbits 0003           _I2C_Master_Restart 04BE  
                 ?_Init_QVGA 0070                __pcstackBANK0 0020          ?_I2C_Master_Restart 0070  
           _I2C_Master_Start 04C8             _I2C_Master_Write 04CD            __size_of_regWrite 0013  
            _Initialize_UART 04F0                     ?___awdiv 0070                     ?_camInit 0070  
       ??_I2C_Master_Restart 0073             UART_send_char@bt 0070              ?_UART_send_char 0070  
                   _ADC_Init 04DC                     _ADC_Read 04FE         __size_of_Init_OV7670 0086  
                   _GO_nDONE 04E9        UART_send_string@st_pt 0071                  ??_Init_QVGA 0076  
        I2C_Master_Read@temp 0077            ?_UART_send_string 0071           ??_UART_send_string 0073  
    __end_of_Initialize_UART 04FE             __size_of___awdiv 0051             __size_of_camInit 0026  
                 _ANSELAbits 018C              _I2C_Master_Init 04E5              _I2C_Master_Read 0538  
            _I2C_Master_Wait 054F              _I2C_Master_Stop 04C3                     __ptext10 06BD  
                   __ptext11 0511                     __ptext12 04CD                     __ptext13 04C3  
                   __ptext14 04BE                     __ptext15 054F                     __ptext16 04D4  
                   __ptext17 04E5                     __ptext18 04FE                     __ptext19 04DC  
              __size_of_main 005E          __end_of_qvga_ov7670 0AD0                     _regWrite 0511  
   __end_of_I2C_Master_Start 04CD     __end_of_I2C_Master_Write 04D4             ?_Initialize_UART 0070  
                 _OSCCONbits 0099             ??_UART_send_char 0070      __end_of_I2C_Master_Init 04F0  
    __end_of_I2C_Master_Read 054F      __end_of_I2C_Master_Wait 056C      __end_of_I2C_Master_Stop 04C8  
              __pstringtext1 0800                __pstringtext2 0A74                __pstringtext3 0AA8  
              __pstringtext4 0ADC                __pstringtext5 0000            I2C_Master_Write@d 0073  
__end_of_ov7670_default_regs 0A74                  _qvga_ov7670 0AA8                _yuv422_ov7670 0A74  
